ccopy_reg
_reconstructor
p0
(cpandas.core.frame
DataFrame
p1
c__builtin__
object
p2
Ntp3
Rp4
(dp5
S'_metadata'
p6
(lp7
sS'_typ'
p8
S'dataframe'
p9
sS'_data'
p10
g0
(cpandas.core.internals
BlockManager
p11
g2
Ntp12
Rp13
((lp14
cpandas.indexes.base
_new_Index
p15
(cpandas.indexes.base
Index
p16
(dp17
S'data'
p18
cnumpy.core.multiarray
_reconstruct
p19
(cnumpy
ndarray
p20
(I0
tp21
S'b'
p22
tp23
Rp24
(I1
(L3L
tp25
cnumpy
dtype
p26
(S'O8'
p27
I0
I1
tp28
Rp29
(I3
S'|'
p30
NNNI-1
I-1
I63
tp31
bI00
(lp32
S'user_id'
p33
aS'item_id'
p34
aS'rating'
p35
atp36
bsS'name'
p37
Nstp38
Rp39
ag15
(cpandas.indexes.range
RangeIndex
p40
(dp41
S'start'
p42
I0
sS'step'
p43
I1
sS'stop'
p44
I121
sg37
Nstp45
Rp46
a(lp47
g19
(g20
(I0
tp48
g22
tp49
Rp50
(I1
(L3L
L121L
tp51
g29
I00
(lp52
S'Brian'
p53
aS'David'
p54
aS'Eugene'
p55
aS'Jon'
p56
aS'Marvin'
p57
aS'Bob'
p58
aS'Anne'
p59
aS'Sarah'
p60
aS'Leah'
p61
aS'Samatha'
p62
aS'Michelle'
p63
ag53
ag54
ag55
ag56
ag57
ag58
ag59
ag60
ag61
ag62
ag63
ag53
ag54
ag55
ag56
ag57
ag58
ag59
ag60
ag61
ag62
ag63
ag53
ag54
ag55
ag56
ag57
ag58
ag59
ag60
ag61
ag62
ag63
ag53
ag54
ag55
ag56
ag57
ag58
ag59
ag60
ag61
ag62
ag63
ag53
ag54
ag55
ag56
ag57
ag58
ag59
ag60
ag61
ag62
ag63
ag53
ag54
ag55
ag56
ag57
ag58
ag59
ag60
ag61
ag62
ag63
ag53
ag54
ag55
ag56
ag57
ag58
ag59
ag60
ag61
ag62
ag63
ag53
ag54
ag55
ag56
ag57
ag58
ag59
ag60
ag61
ag62
ag63
ag53
ag54
ag55
ag56
ag57
ag58
ag59
ag60
ag61
ag62
ag63
ag53
ag54
ag55
ag56
ag57
ag58
ag59
ag60
ag61
ag62
ag63
aS'China'
p64
ag64
ag64
ag64
ag64
ag64
ag64
ag64
ag64
ag64
ag64
aS'France'
p65
ag65
ag65
ag65
ag65
ag65
ag65
ag65
ag65
ag65
ag65
aS'India'
p66
ag66
ag66
ag66
ag66
ag66
ag66
ag66
ag66
ag66
ag66
aS'Indonesia'
p67
ag67
ag67
ag67
ag67
ag67
ag67
ag67
ag67
ag67
ag67
aS'Italy'
p68
ag68
ag68
ag68
ag68
ag68
ag68
ag68
ag68
ag68
ag68
aS'Japan'
p69
ag69
ag69
ag69
ag69
ag69
ag69
ag69
ag69
ag69
ag69
aS'Mexico'
p70
ag70
ag70
ag70
ag70
ag70
ag70
ag70
ag70
ag70
ag70
aS'Pizza'
p71
ag71
ag71
ag71
ag71
ag71
ag71
ag71
ag71
ag71
ag71
aS'Singapore'
p72
ag72
ag72
ag72
ag72
ag72
ag72
ag72
ag72
ag72
ag72
aS'Thailand'
p73
ag73
ag73
ag73
ag73
ag73
ag73
ag73
ag73
ag73
ag73
aS'Vietnam'
p74
ag74
ag74
ag74
ag74
ag74
ag74
ag74
ag74
ag74
ag74
aF1.5
aF2.0
aF2.0
aF1.0
aF0.5
aF2.0
aF2.0
aF1.5
aF1.0
aF4.0
aF0.5
aF1.0
aF4.0
aF3.0
aF3.0
aF2.5
aF4.0
aF3.0
aF3.0
aF0.5
aF1.0
aF5.0
aF5.0
aF2.0
aF4.5
aF2.5
aF3.5
aF1.5
aF1.5
aF4.0
aF0.5
aF3.0
aF1.5
aF1.0
aF3.0
aF5.0
aF3.5
aF1.0
aF4.5
aF2.5
aF3.0
aF3.5
aF4.0
aF1.5
aF3.0
aF1.0
aF5.0
aF4.5
aF5.0
aF2.0
aF1.5
aF4.5
aF2.5
aF5.0
aF1.0
aF0.5
aF3.0
aF4.0
aF4.0
aF1.0
aF1.5
aF1.0
aF3.0
aF2.0
aF1.0
aF2.5
aF1.5
aF3.5
aF4.5
aF5.0
aF1.0
aF1.5
aF2.0
aF0.5
aF2.5
aF3.0
aF5.0
aF2.0
aF5.0
aF4.5
aF2.5
aF5.0
aF2.0
aF5.0
aF2.5
aF1.0
aF3.5
aF5.0
aF4.5
aF3.0
aF5.0
aF1.0
aF0.5
aF2.5
aF4.0
aF0.5
aF4.5
aF3.0
aF3.5
aF4.5
aF0.5
aF2.5
aF4.0
aF4.5
aF1.0
aF5.0
aF5.0
aF3.5
aF1.0
aF3.5
aF1.0
aF1.0
aF2.5
aF4.0
aF1.0
aF3.5
aF4.0
aF2.0
aF4.5
aF3.5
aF1.5
atp75
ba(lp76
g15
(g16
(dp77
g18
g19
(g20
(I0
tp78
g22
tp79
Rp80
(I1
(L3L
tp81
g29
I00
(lp82
g33
ag34
ag35
atp83
bsg37
Nstp84
Rp85
a(dp86
S'0.14.1'
p87
(dp88
S'axes'
p89
g14
sS'blocks'
p90
(lp91
(dp92
S'mgr_locs'
p93
c__builtin__
slice
p94
(I0
I3
L1L
tp95
Rp96
sS'values'
p97
g50
sasstp98
bsb.