ccopy_reg
_reconstructor
p0
(cpandas.core.frame
DataFrame
p1
c__builtin__
object
p2
Ntp3
Rp4
(dp5
S'_metadata'
p6
(lp7
sS'_typ'
p8
S'dataframe'
p9
sS'_data'
p10
g0
(cpandas.core.internals
BlockManager
p11
g2
Ntp12
Rp13
((lp14
cpandas.indexes.base
_new_Index
p15
(cpandas.indexes.base
Index
p16
(dp17
S'data'
p18
cnumpy.core.multiarray
_reconstruct
p19
(cnumpy
ndarray
p20
(I0
tp21
S'b'
p22
tp23
Rp24
(I1
(L3L
tp25
cnumpy
dtype
p26
(S'O8'
p27
I0
I1
tp28
Rp29
(I3
S'|'
p30
NNNI-1
I-1
I63
tp31
bI00
(lp32
S'user_id'
p33
aS'item_id'
p34
aS'rating'
p35
atp36
bsS'name'
p37
Nstp38
Rp39
ag15
(cpandas.indexes.range
RangeIndex
p40
(dp41
S'start'
p42
I0
sS'step'
p43
I1
sS'stop'
p44
I55
sg37
Nstp45
Rp46
a(lp47
g19
(g20
(I0
tp48
g22
tp49
Rp50
(I1
(L3L
L55L
tp51
g29
I00
(lp52
S'Brian'
p53
aS'David'
p54
aS'Eugene'
p55
aS'Jon'
p56
aS'Marvin'
p57
ag53
ag54
ag55
ag56
ag57
ag53
ag54
ag55
ag56
ag57
ag53
ag54
ag55
ag56
ag57
ag53
ag54
ag55
ag56
ag57
ag53
ag54
ag55
ag56
ag57
ag53
ag54
ag55
ag56
ag57
ag53
ag54
ag55
ag56
ag57
ag53
ag54
ag55
ag56
ag57
ag53
ag54
ag55
ag56
ag57
ag53
ag54
ag55
ag56
ag57
aS'China'
p58
ag58
ag58
ag58
ag58
aS'France'
p59
ag59
ag59
ag59
ag59
aS'India'
p60
ag60
ag60
ag60
ag60
aS'Indonesia'
p61
ag61
ag61
ag61
ag61
aS'Italy'
p62
ag62
ag62
ag62
ag62
aS'Japan'
p63
ag63
ag63
ag63
ag63
aS'Mexico'
p64
ag64
ag64
ag64
ag64
aS'Pizza'
p65
ag65
ag65
ag65
ag65
aS'Singapore'
p66
ag66
ag66
ag66
ag66
aS'Thailand'
p67
ag67
ag67
ag67
ag67
aS'Vietnam'
p68
ag68
ag68
ag68
ag68
aF2.0
aF0.5
aF4.0
aF4.0
aF0.5
aF3.5
aF3.0
aF0.5
aF1.0
aF5.0
aF3.0
aF0.5
aF5.0
aF4.0
aF4.5
aF2.5
aF5.0
aF0.5
aF2.5
aF4.5
aF4.5
aF3.5
aF2.0
aF0.5
aF3.5
aF5.0
aF1.5
aF1.5
aF3.0
aF4.5
aF1.0
aF0.5
aF2.0
aF1.0
aF3.5
aF4.0
aF3.0
aF1.0
aF3.0
aF2.0
aF5.0
aF1.5
aF2.0
aF5.0
aF1.0
aF3.5
aF3.5
aF1.0
aF5.0
aF1.5
aF4.5
aF2.0
aF2.0
aF2.5
aF3.0
atp69
ba(lp70
g15
(g16
(dp71
g18
g19
(g20
(I0
tp72
g22
tp73
Rp74
(I1
(L3L
tp75
g29
I00
(lp76
g33
ag34
ag35
atp77
bsg37
Nstp78
Rp79
a(dp80
S'0.14.1'
p81
(dp82
S'axes'
p83
g14
sS'blocks'
p84
(lp85
(dp86
S'mgr_locs'
p87
c__builtin__
slice
p88
(I0
I3
L1L
tp89
Rp90
sS'values'
p91
g50
sasstp92
bsb.