(dp0
S'Italy'
p1
ccopy_reg
_reconstructor
p2
(cpandas.core.frame
DataFrame
p3
c__builtin__
object
p4
Ntp5
Rp6
(dp7
S'_metadata'
p8
(lp9
sS'_typ'
p10
S'dataframe'
p11
sS'_data'
p12
g2
(cpandas.core.internals
BlockManager
p13
g4
Ntp14
Rp15
((lp16
cpandas.indexes.base
_new_Index
p17
(cpandas.indexes.base
Index
p18
(dp19
S'data'
p20
cnumpy.core.multiarray
_reconstruct
p21
(cnumpy
ndarray
p22
(I0
tp23
S'b'
p24
tp25
Rp26
(I1
(L3L
tp27
cnumpy
dtype
p28
(S'O8'
p29
I0
I1
tp30
Rp31
(I3
S'|'
p32
NNNI-1
I-1
I63
tp33
bI00
(lp34
S'user_id'
p35
aS'item_id'
p36
aS'rating'
p37
atp38
bsS'name'
p39
Nstp40
Rp41
ag17
(cpandas.indexes.range
RangeIndex
p42
(dp43
S'start'
p44
I0
sS'step'
p45
I1
sS'stop'
p46
I66
sg39
Nstp47
Rp48
a(lp49
g21
(g22
(I0
tp50
g24
tp51
Rp52
(I1
(L3L
L66L
tp53
g31
I00
(lp54
S'Brian'
p55
aS'David'
p56
aS'Eugene'
p57
aS'Jon'
p58
aS'Marvin'
p59
aS'Bob'
p60
aS'Anne'
p61
aS'Sarah'
p62
aS'Leah'
p63
aS'Samatha'
p64
aS'Michelle'
p65
ag55
ag56
ag57
ag58
ag59
ag60
ag61
ag62
ag63
ag64
ag65
ag55
ag56
ag57
ag58
ag59
ag60
ag61
ag62
ag63
ag64
ag65
ag55
ag56
ag57
ag58
ag59
ag60
ag61
ag62
ag63
ag64
ag65
ag55
ag56
ag57
ag58
ag59
ag60
ag61
ag62
ag63
ag64
ag65
ag55
ag56
ag57
ag58
ag59
ag60
ag61
ag62
ag63
ag64
ag65
aS'Caprese Appetizer'
p66
ag66
ag66
ag66
ag66
ag66
ag66
ag66
ag66
ag66
ag66
aS'Prosciutto Cups'
p67
ag67
ag67
ag67
ag67
ag67
ag67
ag67
ag67
ag67
ag67
aS'Shrimp Scampi with Pasta'
p68
ag68
ag68
ag68
ag68
ag68
ag68
ag68
ag68
ag68
ag68
aS'Pork Chops Italiano'
p69
ag69
ag69
ag69
ag69
ag69
ag69
ag69
ag69
ag69
ag69
aS'Italian Halibut Chwoder'
p70
ag70
ag70
ag70
ag70
ag70
ag70
ag70
ag70
ag70
ag70
aS'Creamy Italian White Bean Soup'
p71
ag71
ag71
ag71
ag71
ag71
ag71
ag71
ag71
ag71
ag71
aF2.5
aF4.5
aF4.0
aF3.0
aF2.0
aF3.0
aF3.0
aF2.5
aF2.0
aF3.0
aF4.5
aF1.0
aF3.5
aF1.5
aF5.0
aF4.5
aF0.5
aF3.5
aF1.0
aF5.0
aF2.5
aF4.5
aF3.0
aF4.0
aF1.0
aF1.5
aF4.0
aF5.0
aF2.0
aF5.0
aF2.5
aF3.5
aF4.5
aF3.0
aF1.5
aF1.0
aF1.0
aF2.0
aF5.0
aF4.5
aF1.5
aF1.5
aF3.5
aF3.0
aF3.0
aF2.0
aF5.0
aF2.0
aF4.5
aF4.0
aF1.0
aF2.5
aF3.5
aF3.5
aF4.0
aF3.0
aF5.0
aF3.5
aF4.5
aF0.5
aF2.5
aF4.0
aF2.0
aF0.5
aF2.0
aF5.0
atp72
ba(lp73
g17
(g18
(dp74
g20
g21
(g22
(I0
tp75
g24
tp76
Rp77
(I1
(L3L
tp78
g31
I00
(lp79
g35
ag36
ag37
atp80
bsg39
Nstp81
Rp82
a(dp83
S'0.14.1'
p84
(dp85
S'axes'
p86
g16
sS'blocks'
p87
(lp88
(dp89
S'mgr_locs'
p90
c__builtin__
slice
p91
(I0
I3
L1L
tp92
Rp93
sS'values'
p94
g52
sasstp95
bsbsS'Singapore'
p96
g2
(g3
g4
Ntp97
Rp98
(dp99
g8
g9
sg10
g11
sg12
g2
(g13
g4
Ntp100
Rp101
((lp102
g17
(g18
(dp103
g20
g21
(g22
(I0
tp104
g24
tp105
Rp106
(I1
(L3L
tp107
g31
I00
(lp108
g35
ag36
ag37
atp109
bsg39
Nstp110
Rp111
ag17
(g42
(dp112
g44
I0
sg45
I1
sg46
I66
sg39
Nstp113
Rp114
a(lp115
g21
(g22
(I0
tp116
g24
tp117
Rp118
(I1
(L3L
L66L
tp119
g31
I00
(lp120
g55
ag56
ag57
ag58
ag59
ag60
ag61
ag62
ag63
ag64
ag65
ag55
ag56
ag57
ag58
ag59
ag60
ag61
ag62
ag63
ag64
ag65
ag55
ag56
ag57
ag58
ag59
ag60
ag61
ag62
ag63
ag64
ag65
ag55
ag56
ag57
ag58
ag59
ag60
ag61
ag62
ag63
ag64
ag65
ag55
ag56
ag57
ag58
ag59
ag60
ag61
ag62
ag63
ag64
ag65
ag55
ag56
ag57
ag58
ag59
ag60
ag61
ag62
ag63
ag64
ag65
aS'Sesame Oil Chicken Wings'
p121
ag121
ag121
ag121
ag121
ag121
ag121
ag121
ag121
ag121
ag121
aS'Singapore Satay'
p122
ag122
ag122
ag122
ag122
ag122
ag122
ag122
ag122
ag122
ag122
aS'Singapore Chili Crabs'
p123
ag123
ag123
ag123
ag123
ag123
ag123
ag123
ag123
ag123
ag123
aS'Singapore Noodle Curry Shrimp'
p124
ag124
ag124
ag124
ag124
ag124
ag124
ag124
ag124
ag124
ag124
aS'Singapore Sling Cocktail'
p125
ag125
ag125
ag125
ag125
ag125
ag125
ag125
ag125
ag125
ag125
aS'Singapore Laksa'
p126
ag126
ag126
ag126
ag126
ag126
ag126
ag126
ag126
ag126
ag126
aF2.5
aF0.5
aF4.5
aF3.5
aF2.5
aF1.5
aF1.0
aF1.5
aF0.5
aF0.5
aF4.0
aF5.0
aF5.0
aF5.0
aF4.5
aF0.5
aF4.0
aF1.0
aF2.5
aF1.0
aF1.0
aF1.5
aF2.5
aF4.0
aF1.0
aF1.5
aF1.0
aF3.5
aF4.5
aF1.5
aF2.5
aF5.0
aF4.5
aF2.5
aF0.5
aF4.0
aF1.0
aF1.0
aF5.0
aF5.0
aF5.0
aF2.5
aF5.0
aF2.5
aF3.0
aF3.0
aF0.5
aF4.0
aF4.0
aF5.0
aF0.5
aF4.5
aF5.0
aF2.0
aF4.0
aF1.0
aF2.0
aF5.0
aF3.0
aF4.5
aF1.5
aF4.0
aF1.0
aF5.0
aF1.0
aF2.5
atp127
ba(lp128
g17
(g18
(dp129
g20
g21
(g22
(I0
tp130
g24
tp131
Rp132
(I1
(L3L
tp133
g31
I00
(lp134
g35
ag36
ag37
atp135
bsg39
Nstp136
Rp137
a(dp138
g84
(dp139
g86
g102
sg87
(lp140
(dp141
g90
g91
(I0
I3
L1L
tp142
Rp143
sg94
g118
sasstp144
bsbsS'Indonesia'
p145
g2
(g3
g4
Ntp146
Rp147
(dp148
g8
g9
sg10
g11
sg12
g2
(g13
g4
Ntp149
Rp150
((lp151
g17
(g18
(dp152
g20
g21
(g22
(I0
tp153
g24
tp154
Rp155
(I1
(L3L
tp156
g31
I00
(lp157
g35
ag36
ag37
atp158
bsg39
Nstp159
Rp160
ag17
(g42
(dp161
g44
I0
sg45
I1
sg46
I66
sg39
Nstp162
Rp163
a(lp164
g21
(g22
(I0
tp165
g24
tp166
Rp167
(I1
(L3L
L66L
tp168
g31
I00
(lp169
g55
ag56
ag57
ag58
ag59
ag60
ag61
ag62
ag63
ag64
ag65
ag55
ag56
ag57
ag58
ag59
ag60
ag61
ag62
ag63
ag64
ag65
ag55
ag56
ag57
ag58
ag59
ag60
ag61
ag62
ag63
ag64
ag65
ag55
ag56
ag57
ag58
ag59
ag60
ag61
ag62
ag63
ag64
ag65
ag55
ag56
ag57
ag58
ag59
ag60
ag61
ag62
ag63
ag64
ag65
ag55
ag56
ag57
ag58
ag59
ag60
ag61
ag62
ag63
ag64
ag65
aS'Indonesian Banana Fritters'
p170
ag170
ag170
ag170
ag170
ag170
ag170
ag170
ag170
ag170
ag170
aS'Indonesia Satay'
p171
ag171
ag171
ag171
ag171
ag171
ag171
ag171
ag171
ag171
ag171
aS'Indonesian Spiced Rice'
p172
ag172
ag172
ag172
ag172
ag172
ag172
ag172
ag172
ag172
ag172
aS'Indonesian Fried Noodles'
p173
ag173
ag173
ag173
ag173
ag173
ag173
ag173
ag173
ag173
ag173
aS'Indonesian Beef Rendang'
p174
ag174
ag174
ag174
ag174
ag174
ag174
ag174
ag174
ag174
ag174
aS'Oxtail soup'
p175
ag175
ag175
ag175
ag175
ag175
ag175
ag175
ag175
ag175
ag175
aF5.0
aF3.0
aF2.0
aF2.0
aF4.5
aF1.5
aF1.5
aF0.5
aF3.5
aF2.0
aF4.5
aF0.5
aF4.0
aF0.5
aF4.0
aF3.0
aF3.5
aF4.5
aF3.0
aF1.0
aF3.0
aF0.5
aF4.0
aF3.0
aF4.5
aF3.0
aF1.0
aF2.0
aF3.0
aF1.5
aF1.5
aF4.5
aF3.0
aF4.5
aF5.0
aF1.0
aF0.5
aF5.0
aF2.0
aF1.5
aF2.0
aF2.5
aF2.5
aF2.0
aF2.5
aF1.5
aF3.5
aF4.5
aF2.5
aF4.0
aF2.5
aF4.0
aF4.0
aF2.0
aF3.0
aF3.5
aF3.5
aF0.5
aF5.0
aF3.5
aF2.0
aF4.5
aF1.5
aF1.5
aF3.0
aF2.0
atp176
ba(lp177
g17
(g18
(dp178
g20
g21
(g22
(I0
tp179
g24
tp180
Rp181
(I1
(L3L
tp182
g31
I00
(lp183
g35
ag36
ag37
atp184
bsg39
Nstp185
Rp186
a(dp187
g84
(dp188
g86
g151
sg87
(lp189
(dp190
g90
g91
(I0
I3
L1L
tp191
Rp192
sg94
g167
sasstp193
bsbsS'India'
p194
g2
(g3
g4
Ntp195
Rp196
(dp197
g8
g9
sg10
g11
sg12
g2
(g13
g4
Ntp198
Rp199
((lp200
g17
(g18
(dp201
g20
g21
(g22
(I0
tp202
g24
tp203
Rp204
(I1
(L3L
tp205
g31
I00
(lp206
g35
ag36
ag37
atp207
bsg39
Nstp208
Rp209
ag17
(g42
(dp210
g44
I0
sg45
I1
sg46
I66
sg39
Nstp211
Rp212
a(lp213
g21
(g22
(I0
tp214
g24
tp215
Rp216
(I1
(L3L
L66L
tp217
g31
I00
(lp218
g55
ag56
ag57
ag58
ag59
ag60
ag61
ag62
ag63
ag64
ag65
ag55
ag56
ag57
ag58
ag59
ag60
ag61
ag62
ag63
ag64
ag65
ag55
ag56
ag57
ag58
ag59
ag60
ag61
ag62
ag63
ag64
ag65
ag55
ag56
ag57
ag58
ag59
ag60
ag61
ag62
ag63
ag64
ag65
ag55
ag56
ag57
ag58
ag59
ag60
ag61
ag62
ag63
ag64
ag65
ag55
ag56
ag57
ag58
ag59
ag60
ag61
ag62
ag63
ag64
ag65
aS'Crispy Vegetables Pakoras'
p219
ag219
ag219
ag219
ag219
ag219
ag219
ag219
ag219
ag219
ag219
aS'Green Chutney'
p220
ag220
ag220
ag220
ag220
ag220
ag220
ag220
ag220
ag220
ag220
aS'Indian Pizza'
p221
ag221
ag221
ag221
ag221
ag221
ag221
ag221
ag221
ag221
ag221
aS'Curried Chickpeas'
p222
ag222
ag222
ag222
ag222
ag222
ag222
ag222
ag222
ag222
ag222
aS'Indian Chai'
p223
ag223
ag223
ag223
ag223
ag223
ag223
ag223
ag223
ag223
ag223
aS'Mango-Mint Lassi'
p224
ag224
ag224
ag224
ag224
ag224
ag224
ag224
ag224
ag224
ag224
aF4.5
aF1.5
aF0.5
aF4.5
aF2.5
aF0.5
aF3.0
aF1.0
aF2.0
aF0.5
aF4.0
aF1.0
aF3.0
aF1.5
aF1.5
aF1.0
aF2.5
aF3.5
aF0.5
aF1.0
aF3.0
aF5.0
aF5.0
aF3.5
aF1.0
aF1.5
aF2.0
aF3.0
aF3.5
aF3.0
aF3.0
aF2.5
aF3.5
aF0.5
aF2.0
aF1.0
aF3.0
aF4.5
aF3.5
aF3.5
aF5.0
aF0.5
aF4.5
aF2.0
aF1.5
aF3.0
aF1.0
aF2.5
aF2.5
aF5.0
aF4.0
aF1.5
aF2.0
aF2.0
aF2.5
aF3.5
aF0.5
aF2.0
aF5.0
aF2.5
aF2.5
aF1.0
aF1.0
aF1.5
aF0.5
aF2.0
atp225
ba(lp226
g17
(g18
(dp227
g20
g21
(g22
(I0
tp228
g24
tp229
Rp230
(I1
(L3L
tp231
g31
I00
(lp232
g35
ag36
ag37
atp233
bsg39
Nstp234
Rp235
a(dp236
g84
(dp237
g86
g200
sg87
(lp238
(dp239
g90
g91
(I0
I3
L1L
tp240
Rp241
sg94
g216
sasstp242
bsbsS'France'
p243
g2
(g3
g4
Ntp244
Rp245
(dp246
g8
g9
sg10
g11
sg12
g2
(g13
g4
Ntp247
Rp248
((lp249
g17
(g18
(dp250
g20
g21
(g22
(I0
tp251
g24
tp252
Rp253
(I1
(L3L
tp254
g31
I00
(lp255
g35
ag36
ag37
atp256
bsg39
Nstp257
Rp258
ag17
(g42
(dp259
g44
I0
sg45
I1
sg46
I66
sg39
Nstp260
Rp261
a(lp262
g21
(g22
(I0
tp263
g24
tp264
Rp265
(I1
(L3L
L66L
tp266
g31
I00
(lp267
g55
ag56
ag57
ag58
ag59
ag60
ag61
ag62
ag63
ag64
ag65
ag55
ag56
ag57
ag58
ag59
ag60
ag61
ag62
ag63
ag64
ag65
ag55
ag56
ag57
ag58
ag59
ag60
ag61
ag62
ag63
ag64
ag65
ag55
ag56
ag57
ag58
ag59
ag60
ag61
ag62
ag63
ag64
ag65
ag55
ag56
ag57
ag58
ag59
ag60
ag61
ag62
ag63
ag64
ag65
ag55
ag56
ag57
ag58
ag59
ag60
ag61
ag62
ag63
ag64
ag65
aS'Peach and Goat Cheese Tartine'
p268
ag268
ag268
ag268
ag268
ag268
ag268
ag268
ag268
ag268
ag268
aS'Creme brulee'
p269
ag269
ag269
ag269
ag269
ag269
ag269
ag269
ag269
ag269
ag269
aS'Crepe Suzette'
p270
ag270
ag270
ag270
ag270
ag270
ag270
ag270
ag270
ag270
ag270
aS'Ratatouille'
p271
ag271
ag271
ag271
ag271
ag271
ag271
ag271
ag271
ag271
ag271
aS'French Onion Soup'
p272
ag272
ag272
ag272
ag272
ag272
ag272
ag272
ag272
ag272
ag272
aS'French Beef Stew'
p273
ag273
ag273
ag273
ag273
ag273
ag273
ag273
ag273
ag273
ag273
aF3.0
aF4.0
aF5.0
aF1.5
aF2.0
aF1.5
aF3.0
aF3.5
aF1.0
aF3.0
aF3.0
aF3.5
aF2.0
aF4.5
aF2.0
aF2.5
aF4.5
aF5.0
aF3.5
aF2.0
aF5.0
aF5.0
aF1.0
aF2.5
aF3.0
aF0.5
aF3.0
aF3.0
aF0.5
aF1.5
aF4.5
aF3.0
aF1.5
aF1.0
aF1.0
aF5.0
aF5.0
aF0.5
aF2.0
aF3.5
aF1.5
aF2.0
aF2.5
aF3.0
aF2.0
aF4.0
aF2.0
aF0.5
aF1.5
aF3.0
aF4.0
aF0.5
aF2.0
aF3.5
aF3.0
aF1.0
aF0.5
aF4.5
aF2.5
aF4.0
aF0.5
aF1.5
aF1.0
aF1.5
aF5.0
aF3.5
atp274
ba(lp275
g17
(g18
(dp276
g20
g21
(g22
(I0
tp277
g24
tp278
Rp279
(I1
(L3L
tp280
g31
I00
(lp281
g35
ag36
ag37
atp282
bsg39
Nstp283
Rp284
a(dp285
g84
(dp286
g86
g249
sg87
(lp287
(dp288
g90
g91
(I0
I3
L1L
tp289
Rp290
sg94
g265
sasstp291
bsbsS'Mexico'
p292
g2
(g3
g4
Ntp293
Rp294
(dp295
g8
g9
sg10
g11
sg12
g2
(g13
g4
Ntp296
Rp297
((lp298
g17
(g18
(dp299
g20
g21
(g22
(I0
tp300
g24
tp301
Rp302
(I1
(L3L
tp303
g31
I00
(lp304
g35
ag36
ag37
atp305
bsg39
Nstp306
Rp307
ag17
(g42
(dp308
g44
I0
sg45
I1
sg46
I66
sg39
Nstp309
Rp310
a(lp311
g21
(g22
(I0
tp312
g24
tp313
Rp314
(I1
(L3L
L66L
tp315
g31
I00
(lp316
g55
ag56
ag57
ag58
ag59
ag60
ag61
ag62
ag63
ag64
ag65
ag55
ag56
ag57
ag58
ag59
ag60
ag61
ag62
ag63
ag64
ag65
ag55
ag56
ag57
ag58
ag59
ag60
ag61
ag62
ag63
ag64
ag65
ag55
ag56
ag57
ag58
ag59
ag60
ag61
ag62
ag63
ag64
ag65
ag55
ag56
ag57
ag58
ag59
ag60
ag61
ag62
ag63
ag64
ag65
ag55
ag56
ag57
ag58
ag59
ag60
ag61
ag62
ag63
ag64
ag65
aS'Great Chicken Taquitos'
p317
ag317
ag317
ag317
ag317
ag317
ag317
ag317
ag317
ag317
ag317
aS'Double Chili cheese Dip'
p318
ag318
ag318
ag318
ag318
ag318
ag318
ag318
ag318
ag318
ag318
aS'Grilled Fish Tacos'
p319
ag319
ag319
ag319
ag319
ag319
ag319
ag319
ag319
ag319
ag319
aS'Chili Rellenos'
p320
ag320
ag320
ag320
ag320
ag320
ag320
ag320
ag320
ag320
ag320
aS'Albondigas'
p321
ag321
ag321
ag321
ag321
ag321
ag321
ag321
ag321
ag321
ag321
aS'Vegetarian Tortilla Soup'
p322
ag322
ag322
ag322
ag322
ag322
ag322
ag322
ag322
ag322
ag322
aF2.0
aF0.5
aF0.5
aF3.0
aF4.0
aF1.5
aF2.0
aF4.5
aF3.0
aF2.0
aF1.0
aF1.5
aF1.0
aF3.0
aF4.0
aF4.0
aF3.5
aF2.5
aF5.0
aF5.0
aF1.0
aF5.0
aF4.5
aF2.5
aF1.5
aF4.5
aF1.5
aF3.0
aF4.5
aF1.0
aF2.0
aF3.5
aF4.0
aF2.5
aF3.5
aF0.5
aF2.5
aF4.0
aF4.0
aF2.5
aF4.0
aF0.5
aF4.5
aF0.5
aF4.0
aF3.0
aF4.5
aF4.0
aF3.5
aF0.5
aF2.0
aF1.5
aF0.5
aF4.0
aF1.0
aF4.0
aF3.0
aF2.0
aF3.5
aF0.5
aF1.5
aF1.0
aF4.5
aF1.5
aF0.5
aF2.5
atp323
ba(lp324
g17
(g18
(dp325
g20
g21
(g22
(I0
tp326
g24
tp327
Rp328
(I1
(L3L
tp329
g31
I00
(lp330
g35
ag36
ag37
atp331
bsg39
Nstp332
Rp333
a(dp334
g84
(dp335
g86
g298
sg87
(lp336
(dp337
g90
g91
(I0
I3
L1L
tp338
Rp339
sg94
g314
sasstp340
bsbsS'Vietnam'
p341
g2
(g3
g4
Ntp342
Rp343
(dp344
g8
g9
sg10
g11
sg12
g2
(g13
g4
Ntp345
Rp346
((lp347
g17
(g18
(dp348
g20
g21
(g22
(I0
tp349
g24
tp350
Rp351
(I1
(L3L
tp352
g31
I00
(lp353
g35
ag36
ag37
atp354
bsg39
Nstp355
Rp356
ag17
(g42
(dp357
g44
I0
sg45
I1
sg46
I66
sg39
Nstp358
Rp359
a(lp360
g21
(g22
(I0
tp361
g24
tp362
Rp363
(I1
(L3L
L66L
tp364
g31
I00
(lp365
g55
ag56
ag57
ag58
ag59
ag60
ag61
ag62
ag63
ag64
ag65
ag55
ag56
ag57
ag58
ag59
ag60
ag61
ag62
ag63
ag64
ag65
ag55
ag56
ag57
ag58
ag59
ag60
ag61
ag62
ag63
ag64
ag65
ag55
ag56
ag57
ag58
ag59
ag60
ag61
ag62
ag63
ag64
ag65
ag55
ag56
ag57
ag58
ag59
ag60
ag61
ag62
ag63
ag64
ag65
ag55
ag56
ag57
ag58
ag59
ag60
ag61
ag62
ag63
ag64
ag65
aS'Vietnamese Fresh Spring Rolls'
p366
ag366
ag366
ag366
ag366
ag366
ag366
ag366
ag366
ag366
ag366
aS'Vietnamese Salad Rolls'
p367
ag367
ag367
ag367
ag367
ag367
ag367
ag367
ag367
ag367
ag367
aS'Vietnamese Chicken Salad'
p368
ag368
ag368
ag368
ag368
ag368
ag368
ag368
ag368
ag368
ag368
aS'Vietnamese Aromatic Lamb Chops'
p369
ag369
ag369
ag369
ag369
ag369
ag369
ag369
ag369
ag369
ag369
aS'Vietnamese Beef Pho'
p370
ag370
ag370
ag370
ag370
ag370
ag370
ag370
ag370
ag370
ag370
aS'Vietnamese Style Vegetarian Curry Soup'
p371
ag371
ag371
ag371
ag371
ag371
ag371
ag371
ag371
ag371
ag371
aF3.0
aF1.0
aF4.5
aF3.0
aF1.5
aF2.0
aF0.5
aF2.5
aF1.5
aF4.0
aF2.0
aF4.0
aF5.0
aF3.5
aF3.0
aF2.0
aF2.0
aF2.0
aF1.5
aF1.0
aF1.0
aF3.0
aF2.0
aF5.0
aF3.5
aF2.5
aF0.5
aF4.5
aF0.5
aF4.0
aF3.0
aF0.5
aF2.5
aF0.5
aF4.5
aF1.0
aF5.0
aF3.5
aF1.5
aF2.0
aF1.0
aF5.0
aF1.0
aF2.5
aF1.5
aF4.5
aF2.5
aF2.0
aF1.5
aF3.5
aF5.0
aF1.5
aF3.0
aF1.0
aF1.5
aF2.0
aF0.5
aF2.0
aF4.5
aF4.5
aF1.5
aF0.5
aF1.5
aF2.0
aF4.5
aF2.5
atp372
ba(lp373
g17
(g18
(dp374
g20
g21
(g22
(I0
tp375
g24
tp376
Rp377
(I1
(L3L
tp378
g31
I00
(lp379
g35
ag36
ag37
atp380
bsg39
Nstp381
Rp382
a(dp383
g84
(dp384
g86
g347
sg87
(lp385
(dp386
g90
g91
(I0
I3
L1L
tp387
Rp388
sg94
g363
sasstp389
bsbsS'China'
p390
g2
(g3
g4
Ntp391
Rp392
(dp393
g8
g9
sg10
g11
sg12
g2
(g13
g4
Ntp394
Rp395
((lp396
g17
(g18
(dp397
g20
g21
(g22
(I0
tp398
g24
tp399
Rp400
(I1
(L3L
tp401
g31
I00
(lp402
g35
ag36
ag37
atp403
bsg39
Nstp404
Rp405
ag17
(g42
(dp406
g44
I0
sg45
I1
sg46
I66
sg39
Nstp407
Rp408
a(lp409
g21
(g22
(I0
tp410
g24
tp411
Rp412
(I1
(L3L
L66L
tp413
g31
I00
(lp414
g55
ag56
ag57
ag58
ag59
ag60
ag61
ag62
ag63
ag64
ag65
ag55
ag56
ag57
ag58
ag59
ag60
ag61
ag62
ag63
ag64
ag65
ag55
ag56
ag57
ag58
ag59
ag60
ag61
ag62
ag63
ag64
ag65
ag55
ag56
ag57
ag58
ag59
ag60
ag61
ag62
ag63
ag64
ag65
ag55
ag56
ag57
ag58
ag59
ag60
ag61
ag62
ag63
ag64
ag65
ag55
ag56
ag57
ag58
ag59
ag60
ag61
ag62
ag63
ag64
ag65
aS'Chinese Tea Leaf Eggs'
p415
ag415
ag415
ag415
ag415
ag415
ag415
ag415
ag415
ag415
ag415
aS'Seseame Oil Chicken Wings'
p416
ag416
ag416
ag416
ag416
ag416
ag416
ag416
ag416
ag416
ag416
aS'Chinese Mabo Tofu'
p417
ag417
ag417
ag417
ag417
ag417
ag417
ag417
ag417
ag417
ag417
aS"General Tsao's Chicken"
p418
ag418
ag418
ag418
ag418
ag418
ag418
ag418
ag418
ag418
ag418
aS'Chinese Sizzling Rice Soup'
p419
ag419
ag419
ag419
ag419
ag419
ag419
ag419
ag419
ag419
ag419
aS'Chinese Corn Soup'
p420
ag420
ag420
ag420
ag420
ag420
ag420
ag420
ag420
ag420
ag420
aF4.0
aF3.5
aF4.0
aF2.0
aF2.0
aF4.0
aF0.5
aF3.5
aF3.5
aF4.5
aF1.0
aF0.5
aF0.5
aF0.5
aF4.0
aF1.5
aF0.5
aF4.5
aF3.0
aF5.0
aF4.5
aF4.5
aF5.0
aF2.5
aF0.5
aF5.0
aF3.5
aF2.0
aF5.0
aF4.5
aF3.0
aF3.5
aF3.0
aF4.0
aF2.5
aF0.5
aF3.5
aF1.5
aF2.0
aF1.5
aF1.5
aF2.5
aF5.0
aF5.0
aF2.0
aF2.0
aF2.5
aF5.0
aF1.0
aF3.5
aF5.0
aF3.5
aF0.5
aF3.0
aF2.5
aF4.0
aF1.5
aF1.5
aF1.0
aF3.5
aF4.5
aF4.0
aF0.5
aF1.0
aF3.0
aF4.5
atp421
ba(lp422
g17
(g18
(dp423
g20
g21
(g22
(I0
tp424
g24
tp425
Rp426
(I1
(L3L
tp427
g31
I00
(lp428
g35
ag36
ag37
atp429
bsg39
Nstp430
Rp431
a(dp432
g84
(dp433
g86
g396
sg87
(lp434
(dp435
g90
g91
(I0
I3
L1L
tp436
Rp437
sg94
g412
sasstp438
bsbsS'Japan'
p439
g2
(g3
g4
Ntp440
Rp441
(dp442
g8
g9
sg10
g11
sg12
g2
(g13
g4
Ntp443
Rp444
((lp445
g17
(g18
(dp446
g20
g21
(g22
(I0
tp447
g24
tp448
Rp449
(I1
(L3L
tp450
g31
I00
(lp451
g35
ag36
ag37
atp452
bsg39
Nstp453
Rp454
ag17
(g42
(dp455
g44
I0
sg45
I1
sg46
I66
sg39
Nstp456
Rp457
a(lp458
g21
(g22
(I0
tp459
g24
tp460
Rp461
(I1
(L3L
L66L
tp462
g31
I00
(lp463
g55
ag56
ag57
ag58
ag59
ag60
ag61
ag62
ag63
ag64
ag65
ag55
ag56
ag57
ag58
ag59
ag60
ag61
ag62
ag63
ag64
ag65
ag55
ag56
ag57
ag58
ag59
ag60
ag61
ag62
ag63
ag64
ag65
ag55
ag56
ag57
ag58
ag59
ag60
ag61
ag62
ag63
ag64
ag65
ag55
ag56
ag57
ag58
ag59
ag60
ag61
ag62
ag63
ag64
ag65
ag55
ag56
ag57
ag58
ag59
ag60
ag61
ag62
ag63
ag64
ag65
aS'Japanese-Style Grilled Mushrooms'
p464
ag464
ag464
ag464
ag464
ag464
ag464
ag464
ag464
ag464
ag464
aS'Tofu Hiyayakko'
p465
ag465
ag465
ag465
ag465
ag465
ag465
ag465
ag465
ag465
ag465
aS'Crispy Shrimp Tempura'
p466
ag466
ag466
ag466
ag466
ag466
ag466
ag466
ag466
ag466
ag466
aS'Miso Salmon'
p467
ag467
ag467
ag467
ag467
ag467
ag467
ag467
ag467
ag467
ag467
aS'Dashi Stock'
p468
ag468
ag468
ag468
ag468
ag468
ag468
ag468
ag468
ag468
ag468
aS'Beef Sukiyaki'
p469
ag469
ag469
ag469
ag469
ag469
ag469
ag469
ag469
ag469
ag469
aF2.5
aF1.0
aF3.5
aF1.0
aF2.0
aF4.0
aF1.5
aF3.5
aF2.5
aF1.0
aF4.0
aF2.5
aF3.5
aF2.0
aF2.0
aF1.5
aF4.5
aF2.0
aF4.0
aF0.5
aF5.0
aF4.5
aF4.0
aF4.5
aF3.0
aF4.5
aF2.5
aF0.5
aF0.5
aF4.5
aF5.0
aF3.5
aF1.0
aF1.0
aF2.0
aF0.5
aF0.5
aF4.5
aF4.5
aF2.0
aF2.5
aF5.0
aF4.0
aF1.0
aF5.0
aF1.0
aF2.0
aF4.0
aF4.5
aF3.5
aF1.0
aF5.0
aF4.5
aF4.0
aF5.0
aF0.5
aF2.0
aF3.0
aF2.0
aF0.5
aF2.5
aF1.0
aF0.5
aF4.0
aF3.0
aF2.0
atp470
ba(lp471
g17
(g18
(dp472
g20
g21
(g22
(I0
tp473
g24
tp474
Rp475
(I1
(L3L
tp476
g31
I00
(lp477
g35
ag36
ag37
atp478
bsg39
Nstp479
Rp480
a(dp481
g84
(dp482
g86
g445
sg87
(lp483
(dp484
g90
g91
(I0
I3
L1L
tp485
Rp486
sg94
g461
sasstp487
bsbsS'Thailand'
p488
g2
(g3
g4
Ntp489
Rp490
(dp491
g8
g9
sg10
g11
sg12
g2
(g13
g4
Ntp492
Rp493
((lp494
g17
(g18
(dp495
g20
g21
(g22
(I0
tp496
g24
tp497
Rp498
(I1
(L3L
tp499
g31
I00
(lp500
g35
ag36
ag37
atp501
bsg39
Nstp502
Rp503
ag17
(g42
(dp504
g44
I0
sg45
I1
sg46
I66
sg39
Nstp505
Rp506
a(lp507
g21
(g22
(I0
tp508
g24
tp509
Rp510
(I1
(L3L
L66L
tp511
g31
I00
(lp512
g55
ag56
ag57
ag58
ag59
ag60
ag61
ag62
ag63
ag64
ag65
ag55
ag56
ag57
ag58
ag59
ag60
ag61
ag62
ag63
ag64
ag65
ag55
ag56
ag57
ag58
ag59
ag60
ag61
ag62
ag63
ag64
ag65
ag55
ag56
ag57
ag58
ag59
ag60
ag61
ag62
ag63
ag64
ag65
ag55
ag56
ag57
ag58
ag59
ag60
ag61
ag62
ag63
ag64
ag65
ag55
ag56
ag57
ag58
ag59
ag60
ag61
ag62
ag63
ag64
ag65
aS'Fried Chicken Wings'
p513
ag513
ag513
ag513
ag513
ag513
ag513
ag513
ag513
ag513
ag513
aS'Fried Tofu with Peanut Dipping Sauce'
p514
ag514
ag514
ag514
ag514
ag514
ag514
ag514
ag514
ag514
ag514
aS'Barbeque Pork on Rice'
p515
ag515
ag515
ag515
ag515
ag515
ag515
ag515
ag515
ag515
ag515
aS'Beef Stew Recipe'
p516
ag516
ag516
ag516
ag516
ag516
ag516
ag516
ag516
ag516
ag516
aS'Thai Ginger Soup'
p517
ag517
ag517
ag517
ag517
ag517
ag517
ag517
ag517
ag517
ag517
aS'Thai Hout and Sour Soup'
p518
ag518
ag518
ag518
ag518
ag518
ag518
ag518
ag518
ag518
ag518
aF3.0
aF4.0
aF1.0
aF2.5
aF3.0
aF2.5
aF0.5
aF2.5
aF2.0
aF2.5
aF3.5
aF3.5
aF3.5
aF2.5
aF3.0
aF2.5
aF3.5
aF3.5
aF2.0
aF2.5
aF0.5
aF4.0
aF2.5
aF1.5
aF1.0
aF0.5
aF5.0
aF4.5
aF1.5
aF2.5
aF1.5
aF0.5
aF5.0
aF1.5
aF2.0
aF0.5
aF4.5
aF3.0
aF2.5
aF4.5
aF2.5
aF5.0
aF3.5
aF2.0
aF3.5
aF5.0
aF4.0
aF1.5
aF2.0
aF1.5
aF5.0
aF0.5
aF1.5
aF3.5
aF5.0
aF1.0
aF2.5
aF2.0
aF1.5
aF2.0
aF1.5
aF1.5
aF4.5
aF4.5
aF4.0
aF4.0
atp519
ba(lp520
g17
(g18
(dp521
g20
g21
(g22
(I0
tp522
g24
tp523
Rp524
(I1
(L3L
tp525
g31
I00
(lp526
g35
ag36
ag37
atp527
bsg39
Nstp528
Rp529
a(dp530
g84
(dp531
g86
g494
sg87
(lp532
(dp533
g90
g91
(I0
I3
L1L
tp534
Rp535
sg94
g510
sasstp536
bsbsS'Pizza'
p537
g2
(g3
g4
Ntp538
Rp539
(dp540
g8
g9
sg10
g11
sg12
g2
(g13
g4
Ntp541
Rp542
((lp543
g17
(g18
(dp544
g20
g21
(g22
(I0
tp545
g24
tp546
Rp547
(I1
(L3L
tp548
g31
I00
(lp549
g35
ag36
ag37
atp550
bsg39
Nstp551
Rp552
ag17
(g42
(dp553
g44
I0
sg45
I1
sg46
I66
sg39
Nstp554
Rp555
a(lp556
g21
(g22
(I0
tp557
g24
tp558
Rp559
(I1
(L3L
L66L
tp560
g31
I00
(lp561
g55
ag56
ag57
ag58
ag59
ag60
ag61
ag62
ag63
ag64
ag65
ag55
ag56
ag57
ag58
ag59
ag60
ag61
ag62
ag63
ag64
ag65
ag55
ag56
ag57
ag58
ag59
ag60
ag61
ag62
ag63
ag64
ag65
ag55
ag56
ag57
ag58
ag59
ag60
ag61
ag62
ag63
ag64
ag65
ag55
ag56
ag57
ag58
ag59
ag60
ag61
ag62
ag63
ag64
ag65
ag55
ag56
ag57
ag58
ag59
ag60
ag61
ag62
ag63
ag64
ag65
aS'Berry, Arugula and Prosciutto Pizza'
p562
ag562
ag562
ag562
ag562
ag562
ag562
ag562
ag562
ag562
ag562
aS'Macaroni And Cheese Pizza'
p563
ag563
ag563
ag563
ag563
ag563
ag563
ag563
ag563
ag563
ag563
aS'Butternut Squash and Crispy Sage Pizza'
p564
ag564
ag564
ag564
ag564
ag564
ag564
ag564
ag564
ag564
ag564
aS'Buffalo Chicken Pizza Sticks'
p565
ag565
ag565
ag565
ag565
ag565
ag565
ag565
ag565
ag565
ag565
aS'Cantaloupe And Sweet Ricotta Pizza'
p566
ag566
ag566
ag566
ag566
ag566
ag566
ag566
ag566
ag566
ag566
aS'Hummus And Grilled Zucchini Pizzas'
p567
ag567
ag567
ag567
ag567
ag567
ag567
ag567
ag567
ag567
ag567
aF4.5
aF2.0
aF4.0
aF3.0
aF1.0
aF1.0
aF5.0
aF5.0
aF3.0
aF4.5
aF1.0
aF1.5
aF4.5
aF5.0
aF4.5
aF0.5
aF4.5
aF0.5
aF1.5
aF0.5
aF1.5
aF5.0
aF5.0
aF2.5
aF1.5
aF3.0
aF3.5
aF1.5
aF3.5
aF1.5
aF5.0
aF3.5
aF3.5
aF1.0
aF5.0
aF2.0
aF5.0
aF2.0
aF4.5
aF3.5
aF1.0
aF4.0
aF2.5
aF2.0
aF0.5
aF5.0
aF3.5
aF5.0
aF2.0
aF0.5
aF4.0
aF0.5
aF3.0
aF3.0
aF4.0
aF3.5
aF3.5
aF2.5
aF4.0
aF2.5
aF2.0
aF4.0
aF5.0
aF2.0
aF3.5
aF0.5
atp568
ba(lp569
g17
(g18
(dp570
g20
g21
(g22
(I0
tp571
g24
tp572
Rp573
(I1
(L3L
tp574
g31
I00
(lp575
g35
ag36
ag37
atp576
bsg39
Nstp577
Rp578
a(dp579
g84
(dp580
g86
g543
sg87
(lp581
(dp582
g90
g91
(I0
I3
L1L
tp583
Rp584
sg94
g559
sasstp585
bsbs.