(dp0
S'Italy'
p1
ccopy_reg
_reconstructor
p2
(cpandas.core.frame
DataFrame
p3
c__builtin__
object
p4
Ntp5
Rp6
(dp7
S'_metadata'
p8
(lp9
sS'_typ'
p10
S'dataframe'
p11
sS'_data'
p12
g2
(cpandas.core.internals
BlockManager
p13
g4
Ntp14
Rp15
((lp16
cpandas.indexes.base
_new_Index
p17
(cpandas.indexes.base
Index
p18
(dp19
S'data'
p20
cnumpy.core.multiarray
_reconstruct
p21
(cnumpy
ndarray
p22
(I0
tp23
S'b'
p24
tp25
Rp26
(I1
(L7L
tp27
cnumpy
dtype
p28
(S'O8'
p29
I0
I1
tp30
Rp31
(I3
S'|'
p32
NNNI-1
I-1
I63
tp33
bI00
(lp34
S'user_id'
p35
aS'Caprese Appetizer'
p36
aS'Prosciutto Cups'
p37
aS'Shrimp Scampi with Pasta'
p38
aS'Pork Chops Italiano'
p39
aS'Italian Halibut Chwoder'
p40
aS'Creamy Italian White Bean Soup'
p41
atp42
bsS'name'
p43
Nstp44
Rp45
ag17
(cpandas.indexes.range
RangeIndex
p46
(dp47
S'start'
p48
I0
sS'step'
p49
I1
sS'stop'
p50
I5
sg43
Nstp51
Rp52
a(lp53
g21
(g22
(I0
tp54
g24
tp55
Rp56
(I1
(L7L
L5L
tp57
g31
I00
(lp58
S'Brian'
p59
aS'David'
p60
aS'Eugene'
p61
aS'Jon'
p62
aS'Marvin'
p63
aF2.0
aF4.5
aF2.0
aF5.0
aF3.5
aF1.5
aF2.5
aF5.0
aF2.0
aF1.5
aF3.0
aF0.5
aF1.0
aF2.5
aF5.0
aF3.0
aF0.5
aF5.0
aF2.5
aF4.5
aF1.0
aF1.0
aF2.0
aF1.0
aF4.0
aF0.5
aF0.5
aF4.0
aF1.0
aF4.5
atp64
ba(lp65
g17
(g18
(dp66
g20
g21
(g22
(I0
tp67
g24
tp68
Rp69
(I1
(L7L
tp70
g31
I00
(lp71
g35
ag36
ag37
ag38
ag39
ag40
ag41
atp72
bsg43
Nstp73
Rp74
a(dp75
S'0.14.1'
p76
(dp77
S'axes'
p78
g16
sS'blocks'
p79
(lp80
(dp81
S'mgr_locs'
p82
c__builtin__
slice
p83
(I0
I7
L1L
tp84
Rp85
sS'values'
p86
g56
sasstp87
bsbsS'Singapore'
p88
g2
(g3
g4
Ntp89
Rp90
(dp91
g8
g9
sg10
g11
sg12
g2
(g13
g4
Ntp92
Rp93
((lp94
g17
(g18
(dp95
g20
g21
(g22
(I0
tp96
g24
tp97
Rp98
(I1
(L7L
tp99
g31
I00
(lp100
g35
aS'Sesame Oil Chicken Wings'
p101
aS'Singapore Satay'
p102
aS'Singapore Chili Crabs'
p103
aS'Singapore Noodle Curry Shrimp'
p104
aS'Singapore Sling Cocktail'
p105
aS'Singapore Laksa'
p106
atp107
bsg43
Nstp108
Rp109
ag17
(g46
(dp110
g48
I0
sg49
I1
sg50
I5
sg43
Nstp111
Rp112
a(lp113
g21
(g22
(I0
tp114
g24
tp115
Rp116
(I1
(L7L
L5L
tp117
g31
I00
(lp118
g59
ag60
ag61
ag62
ag63
aF0.5
aF2.5
aF2.5
aF1.5
aF1.0
aF1.0
aF2.5
aF1.5
aF2.0
aF0.5
aF1.0
aF1.5
aF3.5
aF5.0
aF4.0
aF4.5
aF2.5
aF1.0
aF2.5
aF2.0
aF2.0
aF3.0
aF4.0
aF1.0
aF2.5
aF3.0
aF3.5
aF3.5
aF2.5
aF3.0
atp119
ba(lp120
g17
(g18
(dp121
g20
g21
(g22
(I0
tp122
g24
tp123
Rp124
(I1
(L7L
tp125
g31
I00
(lp126
g35
ag101
ag102
ag103
ag104
ag105
ag106
atp127
bsg43
Nstp128
Rp129
a(dp130
g76
(dp131
g78
g94
sg79
(lp132
(dp133
g82
g83
(I0
I7
L1L
tp134
Rp135
sg86
g116
sasstp136
bsbsS'Indonesia'
p137
g2
(g3
g4
Ntp138
Rp139
(dp140
g8
g9
sg10
g11
sg12
g2
(g13
g4
Ntp141
Rp142
((lp143
g17
(g18
(dp144
g20
g21
(g22
(I0
tp145
g24
tp146
Rp147
(I1
(L7L
tp148
g31
I00
(lp149
g35
aS'Indonesian Banana Fritters'
p150
aS'Indonesia Satay'
p151
aS'Indonesian Spiced Rice'
p152
aS'Indonesian Fried Noodles'
p153
aS'Indonesian Beef Rendang'
p154
aS'Oxtail soup'
p155
atp156
bsg43
Nstp157
Rp158
ag17
(g46
(dp159
g48
I0
sg49
I1
sg50
I5
sg43
Nstp160
Rp161
a(lp162
g21
(g22
(I0
tp163
g24
tp164
Rp165
(I1
(L7L
L5L
tp166
g31
I00
(lp167
g59
ag60
ag61
ag62
ag63
aF2.0
aF0.5
aF5.0
aF0.5
aF2.5
aF2.5
aF0.5
aF4.5
aF0.5
aF3.5
aF1.5
aF1.5
aF4.5
aF3.5
aF4.0
aF1.0
aF1.0
aF4.0
aF3.5
aF1.5
aF5.0
aF1.5
aF3.0
aF1.0
aF0.5
aF2.5
aF3.0
aF4.0
aF5.0
aF4.0
atp168
ba(lp169
g17
(g18
(dp170
g20
g21
(g22
(I0
tp171
g24
tp172
Rp173
(I1
(L7L
tp174
g31
I00
(lp175
g35
ag150
ag151
ag152
ag153
ag154
ag155
atp176
bsg43
Nstp177
Rp178
a(dp179
g76
(dp180
g78
g143
sg79
(lp181
(dp182
g82
g83
(I0
I7
L1L
tp183
Rp184
sg86
g165
sasstp185
bsbsS'India'
p186
g2
(g3
g4
Ntp187
Rp188
(dp189
g8
g9
sg10
g11
sg12
g2
(g13
g4
Ntp190
Rp191
((lp192
g17
(g18
(dp193
g20
g21
(g22
(I0
tp194
g24
tp195
Rp196
(I1
(L7L
tp197
g31
I00
(lp198
g35
aS'Crispy Vegetables Pakoras'
p199
aS'Green Chutney'
p200
aS'Indian Pizza'
p201
aS'Curried Chickpeas'
p202
aS'Indian Chai'
p203
aS'Mango-Mint Lassi'
p204
atp205
bsg43
Nstp206
Rp207
ag17
(g46
(dp208
g48
I0
sg49
I1
sg50
I5
sg43
Nstp209
Rp210
a(lp211
g21
(g22
(I0
tp212
g24
tp213
Rp214
(I1
(L7L
L5L
tp215
g31
I00
(lp216
g59
ag60
ag61
ag62
ag63
aF4.5
aF2.5
aF1.5
aF4.5
aF1.5
aF2.5
aF3.5
aF0.5
aF2.5
aF4.0
aF4.0
aF3.0
aF4.5
aF4.0
aF3.5
aF4.0
aF3.0
aF2.0
aF3.5
aF0.5
aF0.5
aF0.5
aF3.0
aF4.0
aF1.5
aF1.0
aF3.0
aF4.0
aF4.0
aF3.5
atp217
ba(lp218
g17
(g18
(dp219
g20
g21
(g22
(I0
tp220
g24
tp221
Rp222
(I1
(L7L
tp223
g31
I00
(lp224
g35
ag199
ag200
ag201
ag202
ag203
ag204
atp225
bsg43
Nstp226
Rp227
a(dp228
g76
(dp229
g78
g192
sg79
(lp230
(dp231
g82
g83
(I0
I7
L1L
tp232
Rp233
sg86
g214
sasstp234
bsbsS'France'
p235
g2
(g3
g4
Ntp236
Rp237
(dp238
g8
g9
sg10
g11
sg12
g2
(g13
g4
Ntp239
Rp240
((lp241
g17
(g18
(dp242
g20
g21
(g22
(I0
tp243
g24
tp244
Rp245
(I1
(L7L
tp246
g31
I00
(lp247
g35
aS'Peach and Goat Cheese Tartine'
p248
aS'Creme brulee'
p249
aS'Crepe Suzette'
p250
aS'Ratatouille'
p251
aS'French Onion Soup'
p252
aS'French Beef Stew'
p253
atp254
bsg43
Nstp255
Rp256
ag17
(g46
(dp257
g48
I0
sg49
I1
sg50
I5
sg43
Nstp258
Rp259
a(lp260
g21
(g22
(I0
tp261
g24
tp262
Rp263
(I1
(L7L
L5L
tp264
g31
I00
(lp265
g59
ag60
ag61
ag62
ag63
aF2.5
aF1.0
aF0.5
aF3.5
aF1.0
aF5.0
aF2.0
aF2.0
aF2.5
aF4.5
aF2.0
aF1.0
aF3.0
aF1.0
aF3.0
aF4.5
aF2.0
aF1.5
aF0.5
aF5.0
aF4.0
aF0.5
aF3.5
aF4.0
aF3.5
aF3.0
aF1.5
aF3.5
aF2.5
aF1.5
atp266
ba(lp267
g17
(g18
(dp268
g20
g21
(g22
(I0
tp269
g24
tp270
Rp271
(I1
(L7L
tp272
g31
I00
(lp273
g35
ag248
ag249
ag250
ag251
ag252
ag253
atp274
bsg43
Nstp275
Rp276
a(dp277
g76
(dp278
g78
g241
sg79
(lp279
(dp280
g82
g83
(I0
I7
L1L
tp281
Rp282
sg86
g263
sasstp283
bsbsS'Mexico'
p284
g2
(g3
g4
Ntp285
Rp286
(dp287
g8
g9
sg10
g11
sg12
g2
(g13
g4
Ntp288
Rp289
((lp290
g17
(g18
(dp291
g20
g21
(g22
(I0
tp292
g24
tp293
Rp294
(I1
(L7L
tp295
g31
I00
(lp296
g35
aS'Great Chicken Taquitos'
p297
aS'Double Chili cheese Dip'
p298
aS'Grilled Fish Tacos'
p299
aS'Chili Rellenos'
p300
aS'Albondigas'
p301
aS'Vegetarian Tortilla Soup'
p302
atp303
bsg43
Nstp304
Rp305
ag17
(g46
(dp306
g48
I0
sg49
I1
sg50
I5
sg43
Nstp307
Rp308
a(lp309
g21
(g22
(I0
tp310
g24
tp311
Rp312
(I1
(L7L
L5L
tp313
g31
I00
(lp314
g59
ag60
ag61
ag62
ag63
aF2.5
aF2.0
aF4.0
aF5.0
aF2.0
aF1.0
aF5.0
aF5.0
aF3.0
aF4.5
aF4.5
aF0.5
aF1.5
aF0.5
aF1.5
aF1.5
aF3.5
aF1.5
aF5.0
aF3.5
aF4.5
aF3.5
aF1.0
aF4.0
aF2.5
aF0.5
aF4.0
aF0.5
aF3.0
aF3.0
atp315
ba(lp316
g17
(g18
(dp317
g20
g21
(g22
(I0
tp318
g24
tp319
Rp320
(I1
(L7L
tp321
g31
I00
(lp322
g35
ag297
ag298
ag299
ag300
ag301
ag302
atp323
bsg43
Nstp324
Rp325
a(dp326
g76
(dp327
g78
g290
sg79
(lp328
(dp329
g82
g83
(I0
I7
L1L
tp330
Rp331
sg86
g312
sasstp332
bsbsS'Vietnam'
p333
g2
(g3
g4
Ntp334
Rp335
(dp336
g8
g9
sg10
g11
sg12
g2
(g13
g4
Ntp337
Rp338
((lp339
g17
(g18
(dp340
g20
g21
(g22
(I0
tp341
g24
tp342
Rp343
(I1
(L7L
tp344
g31
I00
(lp345
g35
aS'Vietnamese Fresh Spring Rolls'
p346
aS'Vietnamese Salad Rolls'
p347
aS'Vietnamese Chicken Salad'
p348
aS'Vietnamese Aromatic Lamb Chops'
p349
aS'Vietnamese Beef Pho'
p350
aS'Vietnamese Style Vegetarian Curry Soup'
p351
atp352
bsg43
Nstp353
Rp354
ag17
(g46
(dp355
g48
I0
sg49
I1
sg50
I5
sg43
Nstp356
Rp357
a(lp358
g21
(g22
(I0
tp359
g24
tp360
Rp361
(I1
(L7L
L5L
tp362
g31
I00
(lp363
g59
ag60
ag61
ag62
ag63
aF1.5
aF2.0
aF2.0
aF3.0
aF2.5
aF1.5
aF3.0
aF5.0
aF4.0
aF0.5
aF2.0
aF1.5
aF4.0
aF3.0
aF5.0
aF2.5
aF2.5
aF5.0
aF4.5
aF2.0
aF1.0
aF1.5
aF4.0
aF3.0
aF1.0
aF3.5
aF1.0
aF1.5
aF0.5
aF0.5
atp364
ba(lp365
g17
(g18
(dp366
g20
g21
(g22
(I0
tp367
g24
tp368
Rp369
(I1
(L7L
tp370
g31
I00
(lp371
g35
ag346
ag347
ag348
ag349
ag350
ag351
atp372
bsg43
Nstp373
Rp374
a(dp375
g76
(dp376
g78
g339
sg79
(lp377
(dp378
g82
g83
(I0
I7
L1L
tp379
Rp380
sg86
g361
sasstp381
bsbsS'China'
p382
g2
(g3
g4
Ntp383
Rp384
(dp385
g8
g9
sg10
g11
sg12
g2
(g13
g4
Ntp386
Rp387
((lp388
g17
(g18
(dp389
g20
g21
(g22
(I0
tp390
g24
tp391
Rp392
(I1
(L7L
tp393
g31
I00
(lp394
g35
aS'Chinese Tea Leaf Eggs'
p395
aS'Seseame Oil Chicken Wings'
p396
aS'Chinese Mabo Tofu'
p397
aS"General Tsao's Chicken"
p398
aS'Chinese Sizzling Rice Soup'
p399
aS'Chinese Corn Soup'
p400
atp401
bsg43
Nstp402
Rp403
ag17
(g46
(dp404
g48
I0
sg49
I1
sg50
I5
sg43
Nstp405
Rp406
a(lp407
g21
(g22
(I0
tp408
g24
tp409
Rp410
(I1
(L7L
L5L
tp411
g31
I00
(lp412
g59
ag60
ag61
ag62
ag63
aF1.0
aF1.0
aF1.5
aF0.5
aF2.0
aF1.0
aF2.0
aF0.5
aF4.0
aF4.0
aF0.5
aF1.0
aF3.0
aF5.0
aF0.5
aF3.0
aF3.0
aF2.5
aF3.5
aF5.0
aF5.0
aF0.5
aF4.5
aF2.0
aF4.0
aF1.5
aF2.0
aF2.0
aF2.5
aF2.0
atp413
ba(lp414
g17
(g18
(dp415
g20
g21
(g22
(I0
tp416
g24
tp417
Rp418
(I1
(L7L
tp419
g31
I00
(lp420
g35
ag395
ag396
ag397
ag398
ag399
ag400
atp421
bsg43
Nstp422
Rp423
a(dp424
g76
(dp425
g78
g388
sg79
(lp426
(dp427
g82
g83
(I0
I7
L1L
tp428
Rp429
sg86
g410
sasstp430
bsbsS'Japan'
p431
g2
(g3
g4
Ntp432
Rp433
(dp434
g8
g9
sg10
g11
sg12
g2
(g13
g4
Ntp435
Rp436
((lp437
g17
(g18
(dp438
g20
g21
(g22
(I0
tp439
g24
tp440
Rp441
(I1
(L7L
tp442
g31
I00
(lp443
g35
aS'Japanese-Style Grilled Mushrooms'
p444
aS'Tofu Hiyayakko'
p445
aS'Crispy Shrimp Tempura'
p446
aS'Miso Salmon'
p447
aS'Dashi Stock'
p448
aS'Beef Sukiyaki'
p449
atp450
bsg43
Nstp451
Rp452
ag17
(g46
(dp453
g48
I0
sg49
I1
sg50
I5
sg43
Nstp454
Rp455
a(lp456
g21
(g22
(I0
tp457
g24
tp458
Rp459
(I1
(L7L
L5L
tp460
g31
I00
(lp461
g59
ag60
ag61
ag62
ag63
aF3.0
aF4.5
aF2.5
aF0.5
aF0.5
aF0.5
aF0.5
aF4.5
aF4.5
aF2.0
aF2.0
aF4.0
aF4.5
aF3.5
aF1.0
aF3.0
aF2.0
aF0.5
aF2.5
aF1.0
aF1.0
aF2.0
aF4.0
aF1.5
aF3.5
aF2.0
aF1.5
aF4.5
aF2.0
aF4.0
atp462
ba(lp463
g17
(g18
(dp464
g20
g21
(g22
(I0
tp465
g24
tp466
Rp467
(I1
(L7L
tp468
g31
I00
(lp469
g35
ag444
ag445
ag446
ag447
ag448
ag449
atp470
bsg43
Nstp471
Rp472
a(dp473
g76
(dp474
g78
g437
sg79
(lp475
(dp476
g82
g83
(I0
I7
L1L
tp477
Rp478
sg86
g459
sasstp479
bsbsS'Thailand'
p480
g2
(g3
g4
Ntp481
Rp482
(dp483
g8
g9
sg10
g11
sg12
g2
(g13
g4
Ntp484
Rp485
((lp486
g17
(g18
(dp487
g20
g21
(g22
(I0
tp488
g24
tp489
Rp490
(I1
(L7L
tp491
g31
I00
(lp492
g35
aS'Fried Chicken Wings'
p493
aS'Fried Tofu with Peanut Dipping Sauce'
p494
aS'Barbeque Pork on Rice'
p495
aS'Beef Stew Recipe'
p496
aS'Thai Ginger Soup'
p497
aS'Thai Hout and Sour Soup'
p498
atp499
bsg43
Nstp500
Rp501
ag17
(g46
(dp502
g48
I0
sg49
I1
sg50
I5
sg43
Nstp503
Rp504
a(lp505
g21
(g22
(I0
tp506
g24
tp507
Rp508
(I1
(L7L
L5L
tp509
g31
I00
(lp510
g59
ag60
ag61
ag62
ag63
aF5.0
aF2.5
aF3.5
aF4.5
aF4.0
aF1.5
aF1.5
aF3.5
aF3.0
aF4.5
aF2.5
aF3.5
aF3.5
aF4.0
aF2.5
aF2.0
aF0.5
aF2.0
aF5.0
aF3.5
aF2.0
aF3.0
aF4.5
aF5.0
aF3.0
aF5.0
aF2.5
aF4.5
aF0.5
aF4.0
atp511
ba(lp512
g17
(g18
(dp513
g20
g21
(g22
(I0
tp514
g24
tp515
Rp516
(I1
(L7L
tp517
g31
I00
(lp518
g35
ag493
ag494
ag495
ag496
ag497
ag498
atp519
bsg43
Nstp520
Rp521
a(dp522
g76
(dp523
g78
g486
sg79
(lp524
(dp525
g82
g83
(I0
I7
L1L
tp526
Rp527
sg86
g508
sasstp528
bsbsS'Pizza'
p529
g2
(g3
g4
Ntp530
Rp531
(dp532
g8
g9
sg10
g11
sg12
g2
(g13
g4
Ntp533
Rp534
((lp535
g17
(g18
(dp536
g20
g21
(g22
(I0
tp537
g24
tp538
Rp539
(I1
(L7L
tp540
g31
I00
(lp541
g35
aS'Berry, Arugula and Prosciutto Pizza'
p542
aS'Macaroni And Cheese Pizza'
p543
aS'Butternut Squash and Crispy Sage Pizza'
p544
aS'Buffalo Chicken Pizza Sticks'
p545
aS'Cantaloupe And Sweet Ricotta Pizza'
p546
aS'Hummus And Grilled Zucchini Pizzas'
p547
atp548
bsg43
Nstp549
Rp550
ag17
(g46
(dp551
g48
I0
sg49
I1
sg50
I5
sg43
Nstp552
Rp553
a(lp554
g21
(g22
(I0
tp555
g24
tp556
Rp557
(I1
(L7L
L5L
tp558
g31
I00
(lp559
g59
ag60
ag61
ag62
ag63
aF4.5
aF2.5
aF4.0
aF0.5
aF1.5
aF1.5
aF2.0
aF1.5
aF3.0
aF3.5
aF2.0
aF2.5
aF4.5
aF5.0
aF3.5
aF0.5
aF3.0
aF3.0
aF0.5
aF1.5
aF5.0
aF0.5
aF2.0
aF3.5
aF1.5
aF0.5
aF1.5
aF3.0
aF4.0
aF0.5
atp560
ba(lp561
g17
(g18
(dp562
g20
g21
(g22
(I0
tp563
g24
tp564
Rp565
(I1
(L7L
tp566
g31
I00
(lp567
g35
ag542
ag543
ag544
ag545
ag546
ag547
atp568
bsg43
Nstp569
Rp570
a(dp571
g76
(dp572
g78
g535
sg79
(lp573
(dp574
g82
g83
(I0
I7
L1L
tp575
Rp576
sg86
g557
sasstp577
bsbs.