(dp1
S'Italy'
p2
ccopy_reg
_reconstructor
p3
(cpandas.core.frame
DataFrame
p4
c__builtin__
object
p5
NtRp6
(dp7
S'_metadata'
p8
(lp9
sS'_typ'
p10
S'dataframe'
p11
sS'_data'
p12
g3
(cpandas.core.internals
BlockManager
p13
g5
NtRp14
((lp15
cpandas.indexes.base
_new_Index
p16
(cpandas.indexes.base
Index
p17
(dp18
S'data'
p19
cnumpy.core.multiarray
_reconstruct
p20
(cnumpy
ndarray
p21
(I0
tS'b'
tRp22
(I1
(L7L
tcnumpy
dtype
p23
(S'O8'
I0
I1
tRp24
(I3
S'|'
NNNI-1
I-1
I63
tbI00
(lp25
S'Users'
p26
aS'Caprese Appetizer'
p27
aS'Prosciutto Cups'
p28
aS'Shrimp Scampi with Pasta'
p29
aS'Pork Chops Italiano'
p30
aS'Italian Halibut Chwoder'
p31
aS'Creamy Italian White Bean Soup'
p32
atbsS'name'
p33
NstRp34
ag16
(cpandas.indexes.range
RangeIndex
p35
(dp36
S'start'
p37
I0
sS'step'
p38
I1
sS'stop'
p39
I5
sg33
NstRp40
a(lp41
g20
(g21
(I0
tS'b'
tRp42
(I1
(L7L
L5L
tg24
I00
(lp43
S'Brian'
p44
aS'David'
p45
aS'Eugene'
p46
aS'Jon'
p47
aS'Marvin'
p48
aF1
aF1.5
aF2.5
aF5
aF2
aF5
aF3
aF0.5
aF1
aF2.5
aF1.5
aF3
aF0.5
aF5
aF2.5
aF4
aF1
aF1
aF2
aF1
aF2.5
aF0.5
aF0.5
aF4
aF1
aF2
aF4.5
aF2
aF5
aF3.5
atba(lp49
g16
(g17
(dp50
g19
g20
(g21
(I0
tS'b'
tRp51
(I1
(L7L
tg24
I00
(lp52
g26
ag27
ag28
ag29
ag30
ag31
ag32
atbsg33
NstRp53
a(dp54
S'0.14.1'
p55
(dp56
S'axes'
p57
g15
sS'blocks'
p58
(lp59
(dp60
S'mgr_locs'
p61
c__builtin__
slice
p62
(I0
I7
L1L
tRp63
sS'values'
p64
g42
sasstbsbsS'Singapore'
p65
g3
(g4
g5
NtRp66
(dp67
g8
g9
sg10
g11
sg12
g3
(g13
g5
NtRp68
((lp69
g16
(g17
(dp70
g19
g20
(g21
(I0
tS'b'
tRp71
(I1
(L7L
tg24
I00
(lp72
g26
aS'Sesame Oil Chicken Wings'
p73
aS'Singapore Satay'
p74
aS'Singapore Chili Crabs'
p75
aS'Singapore Noodle Curry Shrimp'
p76
aS'Singapore Sling Cocktail'
p77
aS'Singapore Laksa'
p78
atbsg33
NstRp79
ag16
(g35
(dp80
g37
I0
sg38
I1
sg39
I5
sg33
NstRp81
a(lp82
g20
(g21
(I0
tS'b'
tRp83
(I1
(L7L
L5L
tg24
I00
(lp84
g44
ag45
ag46
ag47
ag48
aF5
aF1
aF2.5
aF1.5
aF2
aF3
aF1
aF1.5
aF3.5
aF5
aF2
aF4.5
aF2.5
aF1
aF2.5
aF4
aF2
aF3
aF4
aF1
aF1
aF3
aF3.5
aF3.5
aF2.5
aF0.5
aF2.5
aF2.5
aF1.5
aF1
atba(lp85
g16
(g17
(dp86
g19
g20
(g21
(I0
tS'b'
tRp87
(I1
(L7L
tg24
I00
(lp88
g26
ag73
ag74
ag75
ag76
ag77
ag78
atbsg33
NstRp89
a(dp90
g55
(dp91
g57
g69
sg58
(lp92
(dp93
g61
g62
(I0
I7
L1L
tRp94
sg64
g83
sasstbsbsS'Indonesia'
p95
g3
(g4
g5
NtRp96
(dp97
g8
g9
sg10
g11
sg12
g3
(g13
g5
NtRp98
((lp99
g16
(g17
(dp100
g19
g20
(g21
(I0
tS'b'
tRp101
(I1
(L7L
tg24
I00
(lp102
g26
aS'Indonesian Banana Fritters'
p103
aS'Indonesia Satay'
p104
aS'Indonesian Spiced Rice'
p105
aS'Indonesian Fried Noodles'
p106
aS'Indonesian Beef Rendang'
p107
aS'Oxtail soup'
p108
atbsg33
NstRp109
ag16
(g35
(dp110
g37
I0
sg38
I1
sg39
I5
sg33
NstRp111
a(lp112
g20
(g21
(I0
tS'b'
tRp113
(I1
(L7L
L5L
tg24
I00
(lp114
g44
ag45
ag46
ag47
ag48
aF2.5
aF2.5
aF0.5
aF4.5
aF0.5
aF1
aF1.5
aF1.5
aF4.5
aF3.5
aF1
aF1
aF1
aF4
aF3.5
aF1
aF5
aF1.5
aF3
aF1
aF1.5
aF2.5
aF3
aF4
aF5
aF2
aF0.5
aF5
aF0.5
aF2.5
atba(lp115
g16
(g17
(dp116
g19
g20
(g21
(I0
tS'b'
tRp117
(I1
(L7L
tg24
I00
(lp118
g26
ag103
ag104
ag105
ag106
ag107
ag108
atbsg33
NstRp119
a(dp120
g55
(dp121
g57
g99
sg58
(lp122
(dp123
g61
g62
(I0
I7
L1L
tRp124
sg64
g113
sasstbsbsS'India'
p125
g3
(g4
g5
NtRp126
(dp127
g8
g9
sg10
g11
sg12
g3
(g13
g5
NtRp128
((lp129
g16
(g17
(dp130
g19
g20
(g21
(I0
tS'b'
tRp131
(I1
(L7L
tg24
I00
(lp132
g26
aS'Crispy Vegetables Pakoras'
p133
aS'Green Chutney'
p134
aS'Indian Pizza'
p135
aS'Curried Chickpeas'
p136
aS'Indian Chai'
p137
aS'Mango-Mint Lassi'
p138
atbsg33
NstRp139
ag16
(g35
(dp140
g37
I0
sg38
I1
sg39
I5
sg33
NstRp141
a(lp142
g20
(g21
(I0
tS'b'
tRp143
(I1
(L7L
L5L
tg24
I00
(lp144
g44
ag45
ag46
ag47
ag48
aF2.5
aF2.5
aF3.5
aF0.5
aF2.5
aF4
aF4
aF3
aF4.5
aF4
aF2.5
aF4
aF3
aF2
aF3.5
aF2
aF0.5
aF0.5
aF3
aF4
aF1.5
aF1
aF3
aF4
aF4
aF4.5
aF2.5
aF1.5
aF4.5
aF1.5
atba(lp145
g16
(g17
(dp146
g19
g20
(g21
(I0
tS'b'
tRp147
(I1
(L7L
tg24
I00
(lp148
g26
ag133
ag134
ag135
ag136
ag137
ag138
atbsg33
NstRp149
a(dp150
g55
(dp151
g57
g129
sg58
(lp152
(dp153
g61
g62
(I0
I7
L1L
tRp154
sg64
g143
sasstbsbsS'France'
p155
g3
(g4
g5
NtRp156
(dp157
g8
g9
sg10
g11
sg12
g3
(g13
g5
NtRp158
((lp159
g16
(g17
(dp160
g19
g20
(g21
(I0
tS'b'
tRp161
(I1
(L7L
tg24
I00
(lp162
g26
aS'Peach and Goat Cheese Tartine'
p163
aS'Creme brulee'
p164
aS'Crepe Suzette'
p165
aS'Ratatouille'
p166
aS'French Onion Soup'
p167
aS'French Beef Stew'
p168
atbsg33
NstRp169
ag16
(g35
(dp170
g37
I0
sg38
I1
sg39
I5
sg33
NstRp171
a(lp172
g20
(g21
(I0
tS'b'
tRp173
(I1
(L7L
L5L
tg24
I00
(lp174
g44
ag45
ag46
ag47
ag48
aF2
aF5
aF2
aF2
aF2.5
aF3.5
aF2
aF1
aF3
aF1
aF3.5
aF4.5
aF2
aF1.5
aF0.5
aF1.5
aF4
aF0.5
aF3.5
aF4
aF1.5
aF3
aF1.5
aF3.5
aF2.5
aF2.5
aF1
aF0.5
aF3.5
aF1
atba(lp175
g16
(g17
(dp176
g19
g20
(g21
(I0
tS'b'
tRp177
(I1
(L7L
tg24
I00
(lp178
g26
ag163
ag164
ag165
ag166
ag167
ag168
atbsg33
NstRp179
a(dp180
g55
(dp181
g57
g159
sg58
(lp182
(dp183
g61
g62
(I0
I7
L1L
tRp184
sg64
g173
sasstbsbsS'Mexico'
p185
g3
(g4
g5
NtRp186
(dp187
g8
g9
sg10
g11
sg12
g3
(g13
g5
NtRp188
((lp189
g16
(g17
(dp190
g19
g20
(g21
(I0
tS'b'
tRp191
(I1
(L7L
tg24
I00
(lp192
g26
aS'Great Chicken Taquitos'
p193
aS'Double Chili cheese Dip'
p194
aS'Grilled Fish Tacos'
p195
aS'Chili Rellenos'
p196
aS'Albondigas'
p197
aS'Vegetarian Tortilla Soup'
p198
atbsg33
NstRp199
ag16
(g35
(dp200
g37
I0
sg38
I1
sg39
I5
sg33
NstRp201
a(lp202
g20
(g21
(I0
tS'b'
tRp203
(I1
(L7L
L5L
tg24
I00
(lp204
g44
ag45
ag46
ag47
ag48
aF1
aF1
aF5
aF5
aF3
aF0.5
aF4.5
aF0.5
aF1.5
aF0.5
aF3.5
aF1.5
aF3.5
aF1.5
aF5
aF2
aF4.5
aF3.5
aF1
aF4
aF2
aF0.5
aF4
aF0.5
aF3
aF2.5
aF2
aF4
aF5
aF2
atba(lp205
g16
(g17
(dp206
g19
g20
(g21
(I0
tS'b'
tRp207
(I1
(L7L
tg24
I00
(lp208
g26
ag193
ag194
ag195
ag196
ag197
ag198
atbsg33
NstRp209
a(dp210
g55
(dp211
g57
g189
sg58
(lp212
(dp213
g61
g62
(I0
I7
L1L
tRp214
sg64
g203
sasstbsbsS'Vietnam'
p215
g3
(g4
g5
NtRp216
(dp217
g8
g9
sg10
g11
sg12
g3
(g13
g5
NtRp218
((lp219
g16
(g17
(dp220
g19
g20
(g21
(I0
tS'b'
tRp221
(I1
(L7L
tg24
I00
(lp222
g26
aS'Vietnamese Fresh Spring Rolls'
p223
aS'Vietnamese Salad Rolls'
p224
aS'Vietnamese Chicken Salad'
p225
aS'Vietnamese Aromatic Lamb Chops'
p226
aS'Vietnamese Beef Pho'
p227
aS'Vietnamese Style Vegetarian Curry Soup'
p228
atbsg33
NstRp229
ag16
(g35
(dp230
g37
I0
sg38
I1
sg39
I5
sg33
NstRp231
a(lp232
g20
(g21
(I0
tS'b'
tRp233
(I1
(L7L
L5L
tg24
I00
(lp234
g44
ag45
ag46
ag47
ag48
aF2
aF1.5
aF3
aF5
aF4
aF4
aF2
aF1.5
aF4
aF3
aF1.5
aF2.5
aF2.5
aF5
aF4.5
aF4.5
aF1
aF1.5
aF4
aF3
aF2
aF3.5
aF1
aF1.5
aF0.5
aF1.5
aF2
aF2
aF3
aF2.5
atba(lp235
g16
(g17
(dp236
g19
g20
(g21
(I0
tS'b'
tRp237
(I1
(L7L
tg24
I00
(lp238
g26
ag223
ag224
ag225
ag226
ag227
ag228
atbsg33
NstRp239
a(dp240
g55
(dp241
g57
g219
sg58
(lp242
(dp243
g61
g62
(I0
I7
L1L
tRp244
sg64
g233
sasstbsbsS'China'
p245
g3
(g4
g5
NtRp246
(dp247
g8
g9
sg10
g11
sg12
g3
(g13
g5
NtRp248
((lp249
g16
(g17
(dp250
g19
g20
(g21
(I0
tS'b'
tRp251
(I1
(L7L
tg24
I00
(lp252
g26
aS'Chinese Tea Leaf Eggs'
p253
aS'Seseame Oil Chicken Wings'
p254
aS'Chinese Mabo Tofu'
p255
aS"General Tsao's Chicken"
p256
aS'Chinese Sizzling Rice Soup'
p257
aS'Chinese Corn Soup'
p258
atbsg33
NstRp259
ag16
(g35
(dp260
g37
I0
sg38
I1
sg39
I5
sg33
NstRp261
a(lp262
g20
(g21
(I0
tS'b'
tRp263
(I1
(L7L
L5L
tg24
I00
(lp264
g44
ag45
ag46
ag47
ag48
aF3
aF1
aF2
aF0.5
aF4
aF3.5
aF0.5
aF1
aF3
aF5
aF3.5
aF3
aF3
aF2.5
aF3.5
aF3.5
aF5
aF0.5
aF4.5
aF2
aF4
aF1.5
aF2
aF2
aF2.5
aF1
aF1
aF1.5
aF0.5
aF2
atba(lp265
g16
(g17
(dp266
g19
g20
(g21
(I0
tS'b'
tRp267
(I1
(L7L
tg24
I00
(lp268
g26
ag253
ag254
ag255
ag256
ag257
ag258
atbsg33
NstRp269
a(dp270
g55
(dp271
g57
g249
sg58
(lp272
(dp273
g61
g62
(I0
I7
L1L
tRp274
sg64
g263
sasstbsbsS'Japan'
p275
g3
(g4
g5
NtRp276
(dp277
g8
g9
sg10
g11
sg12
g3
(g13
g5
NtRp278
((lp279
g16
(g17
(dp280
g19
g20
(g21
(I0
tS'b'
tRp281
(I1
(L7L
tg24
I00
(lp282
g26
aS'Japanese-Style Grilled Mushrooms'
p283
aS'Tofu Hiyayakko'
p284
aS'Crispy Shrimp Tempura'
p285
aS'Miso Salmon'
p286
aS'Dashi Stock'
p287
aS'Beef Sukiyaki'
p288
atbsg33
NstRp289
ag16
(g35
(dp290
g37
I0
sg38
I1
sg39
I5
sg33
NstRp291
a(lp292
g20
(g21
(I0
tS'b'
tRp293
(I1
(L7L
L5L
tg24
I00
(lp294
g44
ag45
ag46
ag47
ag48
aF2
aF0.5
aF0.5
aF4.5
aF4.5
aF1
aF2
aF4
aF4.5
aF3.5
aF2
aF3
aF2
aF0.5
aF2.5
aF3.5
aF1
aF2
aF4
aF1.5
aF2
aF2
aF1.5
aF4.5
aF2
aF3
aF4.5
aF2.5
aF0.5
aF0.5
atba(lp295
g16
(g17
(dp296
g19
g20
(g21
(I0
tS'b'
tRp297
(I1
(L7L
tg24
I00
(lp298
g26
ag283
ag284
ag285
ag286
ag287
ag288
atbsg33
NstRp299
a(dp300
g55
(dp301
g57
g279
sg58
(lp302
(dp303
g61
g62
(I0
I7
L1L
tRp304
sg64
g293
sasstbsbsS'Thailand'
p305
g3
(g4
g5
NtRp306
(dp307
g8
g9
sg10
g11
sg12
g3
(g13
g5
NtRp308
((lp309
g16
(g17
(dp310
g19
g20
(g21
(I0
tS'b'
tRp311
(I1
(L7L
tg24
I00
(lp312
g26
aS'Fried Chicken Wings'
p313
aS'Fried Tofu with Peanut Dipping Sauce'
p314
aS'Barbeque Pork on Rice'
p315
aS'Beef Stew Recipe'
p316
aS'Thai Ginger Soup'
p317
aS'Thai Hout and Sour Soup'
p318
atbsg33
NstRp319
ag16
(g35
(dp320
g37
I0
sg38
I1
sg39
I5
sg33
NstRp321
a(lp322
g20
(g21
(I0
tS'b'
tRp323
(I1
(L7L
L5L
tg24
I00
(lp324
g44
ag45
ag46
ag47
ag48
aF4.5
aF1.5
aF1.5
aF3.5
aF3
aF1
aF2.5
aF3.5
aF3.5
aF4
aF4
aF2
aF0.5
aF2
aF5
aF2.5
aF2
aF3
aF4.5
aF5
aF1
aF5
aF2.5
aF4.5
aF0.5
aF5
aF2.5
aF3.5
aF4.5
aF4
atba(lp325
g16
(g17
(dp326
g19
g20
(g21
(I0
tS'b'
tRp327
(I1
(L7L
tg24
I00
(lp328
g26
ag313
ag314
ag315
ag316
ag317
ag318
atbsg33
NstRp329
a(dp330
g55
(dp331
g57
g309
sg58
(lp332
(dp333
g61
g62
(I0
I7
L1L
tRp334
sg64
g323
sasstbsbsS'Pizza'
p335
g3
(g4
g5
NtRp336
(dp337
g8
g9
sg10
g11
sg12
g3
(g13
g5
NtRp338
((lp339
g16
(g17
(dp340
g19
g20
(g21
(I0
tS'b'
tRp341
(I1
(L7L
tg24
I00
(lp342
g26
aS'Berry, Arugula and Prosciutto Pizza'
p343
aS'Macaroni And Cheese Pizza'
p344
aS'Butternut Squash and Crispy Sage Pizza'
p345
aS'Buffalo Chicken Pizza Sticks'
p346
aS'Cantaloupe And Sweet Ricotta Pizza'
p347
aS'Hummus And Grilled Zucchini Pizzas'
p348
atbsg33
NstRp349
ag16
(g35
(dp350
g37
I0
sg38
I1
sg39
I5
sg33
NstRp351
a(lp352
g20
(g21
(I0
tS'b'
tRp353
(I1
(L7L
L5L
tg24
I00
(lp354
g44
ag45
ag46
ag47
ag48
aF5
aF1.5
aF2
aF1.5
aF3
aF4.5
aF2
aF2.5
aF4.5
aF5
aF3
aF0.5
aF3
aF3
aF0.5
aF5
aF5
aF0.5
aF2
aF3.5
aF2
aF0.5
aF1.5
aF3
aF4
aF4.5
aF2.5
aF4
aF0.5
aF1.5
atba(lp355
g16
(g17
(dp356
g19
g20
(g21
(I0
tS'b'
tRp357
(I1
(L7L
tg24
I00
(lp358
g26
ag343
ag344
ag345
ag346
ag347
ag348
atbsg33
NstRp359
a(dp360
g55
(dp361
g57
g339
sg58
(lp362
(dp363
g61
g62
(I0
I7
L1L
tRp364
sg64
g353
sasstbsbs.