(dp0
S'Italy'
p1
ccopy_reg
_reconstructor
p2
(cpandas.core.frame
DataFrame
p3
c__builtin__
object
p4
Ntp5
Rp6
(dp7
S'_metadata'
p8
(lp9
sS'_typ'
p10
S'dataframe'
p11
sS'_data'
p12
g2
(cpandas.core.internals
BlockManager
p13
g4
Ntp14
Rp15
((lp16
cpandas.indexes.base
_new_Index
p17
(cpandas.indexes.base
Index
p18
(dp19
S'data'
p20
cnumpy.core.multiarray
_reconstruct
p21
(cnumpy
ndarray
p22
(I0
tp23
S'b'
p24
tp25
Rp26
(I1
(L3L
tp27
cnumpy
dtype
p28
(S'O8'
p29
I0
I1
tp30
Rp31
(I3
S'|'
p32
NNNI-1
I-1
I63
tp33
bI00
(lp34
S'user_id'
p35
aS'item_id'
p36
aS'rating'
p37
atp38
bsS'name'
p39
Nstp40
Rp41
ag17
(cpandas.indexes.range
RangeIndex
p42
(dp43
S'start'
p44
I0
sS'step'
p45
I1
sS'stop'
p46
I30
sg39
Nstp47
Rp48
a(lp49
g21
(g22
(I0
tp50
g24
tp51
Rp52
(I1
(L3L
L30L
tp53
g31
I00
(lp54
S'Brian'
p55
aS'David'
p56
aS'Eugene'
p57
aS'Jon'
p58
aS'Marvin'
p59
ag55
ag56
ag57
ag58
ag59
ag55
ag56
ag57
ag58
ag59
ag55
ag56
ag57
ag58
ag59
ag55
ag56
ag57
ag58
ag59
ag55
ag56
ag57
ag58
ag59
aS'Caprese Appetizer'
p60
ag60
ag60
ag60
ag60
aS'Prosciutto Cups'
p61
ag61
ag61
ag61
ag61
aS'Shrimp Scampi with Pasta'
p62
ag62
ag62
ag62
ag62
aS'Pork Chops Italiano'
p63
ag63
ag63
ag63
ag63
aS'Italian Halibut Chwoder'
p64
ag64
ag64
ag64
ag64
aS'Creamy Italian White Bean Soup'
p65
ag65
ag65
ag65
ag65
aF1.5
aF3.0
aF1.5
aF5.0
aF1.5
aF3.0
aF3.5
aF4.0
aF4.0
aF5.0
aF3.5
aF2.5
aF5.0
aF2.5
aF1.0
aF4.0
aF3.5
aF4.0
aF5.0
aF1.5
aF2.5
aF1.5
aF4.0
aF0.5
aF5.0
aF2.0
aF2.5
aF1.5
aF5.0
aF1.0
atp66
ba(lp67
g17
(g18
(dp68
g20
g21
(g22
(I0
tp69
g24
tp70
Rp71
(I1
(L3L
tp72
g31
I00
(lp73
g35
ag36
ag37
atp74
bsg39
Nstp75
Rp76
a(dp77
S'0.14.1'
p78
(dp79
S'axes'
p80
g16
sS'blocks'
p81
(lp82
(dp83
S'mgr_locs'
p84
c__builtin__
slice
p85
(I0
I3
L1L
tp86
Rp87
sS'values'
p88
g52
sasstp89
bsbsS'Singapore'
p90
g2
(g3
g4
Ntp91
Rp92
(dp93
g8
g9
sg10
g11
sg12
g2
(g13
g4
Ntp94
Rp95
((lp96
g17
(g18
(dp97
g20
g21
(g22
(I0
tp98
g24
tp99
Rp100
(I1
(L3L
tp101
g31
I00
(lp102
g35
ag36
ag37
atp103
bsg39
Nstp104
Rp105
ag17
(g42
(dp106
g44
I0
sg45
I1
sg46
I30
sg39
Nstp107
Rp108
a(lp109
g21
(g22
(I0
tp110
g24
tp111
Rp112
(I1
(L3L
L30L
tp113
g31
I00
(lp114
g55
ag56
ag57
ag58
ag59
ag55
ag56
ag57
ag58
ag59
ag55
ag56
ag57
ag58
ag59
ag55
ag56
ag57
ag58
ag59
ag55
ag56
ag57
ag58
ag59
ag55
ag56
ag57
ag58
ag59
aS'Sesame Oil Chicken Wings'
p115
ag115
ag115
ag115
ag115
aS'Singapore Satay'
p116
ag116
ag116
ag116
ag116
aS'Singapore Chili Crabs'
p117
ag117
ag117
ag117
ag117
aS'Singapore Noodle Curry Shrimp'
p118
ag118
ag118
ag118
ag118
aS'Singapore Sling Cocktail'
p119
ag119
ag119
ag119
ag119
aS'Singapore Laksa'
p120
ag120
ag120
ag120
ag120
aF2.0
aF0.5
aF5.0
aF0.5
aF2.5
aF2.5
aF0.5
aF4.5
aF0.5
aF3.5
aF1.5
aF1.5
aF4.5
aF3.5
aF4.0
aF1.0
aF1.0
aF4.0
aF3.5
aF1.5
aF5.0
aF1.5
aF3.0
aF1.0
aF0.5
aF2.5
aF3.0
aF4.0
aF5.0
aF4.0
atp121
ba(lp122
g17
(g18
(dp123
g20
g21
(g22
(I0
tp124
g24
tp125
Rp126
(I1
(L3L
tp127
g31
I00
(lp128
g35
ag36
ag37
atp129
bsg39
Nstp130
Rp131
a(dp132
g78
(dp133
g80
g96
sg81
(lp134
(dp135
g84
g85
(I0
I3
L1L
tp136
Rp137
sg88
g112
sasstp138
bsbsS'Indonesia'
p139
g2
(g3
g4
Ntp140
Rp141
(dp142
g8
g9
sg10
g11
sg12
g2
(g13
g4
Ntp143
Rp144
((lp145
g17
(g18
(dp146
g20
g21
(g22
(I0
tp147
g24
tp148
Rp149
(I1
(L3L
tp150
g31
I00
(lp151
g35
ag36
ag37
atp152
bsg39
Nstp153
Rp154
ag17
(g42
(dp155
g44
I0
sg45
I1
sg46
I30
sg39
Nstp156
Rp157
a(lp158
g21
(g22
(I0
tp159
g24
tp160
Rp161
(I1
(L3L
L30L
tp162
g31
I00
(lp163
g55
ag56
ag57
ag58
ag59
ag55
ag56
ag57
ag58
ag59
ag55
ag56
ag57
ag58
ag59
ag55
ag56
ag57
ag58
ag59
ag55
ag56
ag57
ag58
ag59
ag55
ag56
ag57
ag58
ag59
aS'Indonesian Banana Fritters'
p164
ag164
ag164
ag164
ag164
aS'Indonesia Satay'
p165
ag165
ag165
ag165
ag165
aS'Indonesian Spiced Rice'
p166
ag166
ag166
ag166
ag166
aS'Indonesian Fried Noodles'
p167
ag167
ag167
ag167
ag167
aS'Indonesian Beef Rendang'
p168
ag168
ag168
ag168
ag168
aS'Oxtail soup'
p169
ag169
ag169
ag169
ag169
aF3.0
aF2.5
aF5.0
aF0.5
aF2.5
aF4.0
aF0.5
aF1.0
aF2.5
aF4.5
aF2.5
aF3.0
aF2.0
aF2.5
aF1.0
aF4.0
aF2.5
aF3.0
aF0.5
aF4.5
aF4.0
aF5.0
aF5.0
aF3.5
aF5.0
aF1.0
aF1.5
aF2.0
aF4.5
aF4.5
atp170
ba(lp171
g17
(g18
(dp172
g20
g21
(g22
(I0
tp173
g24
tp174
Rp175
(I1
(L3L
tp176
g31
I00
(lp177
g35
ag36
ag37
atp178
bsg39
Nstp179
Rp180
a(dp181
g78
(dp182
g80
g145
sg81
(lp183
(dp184
g84
g85
(I0
I3
L1L
tp185
Rp186
sg88
g161
sasstp187
bsbsS'India'
p188
g2
(g3
g4
Ntp189
Rp190
(dp191
g8
g9
sg10
g11
sg12
g2
(g13
g4
Ntp192
Rp193
((lp194
g17
(g18
(dp195
g20
g21
(g22
(I0
tp196
g24
tp197
Rp198
(I1
(L3L
tp199
g31
I00
(lp200
g35
ag36
ag37
atp201
bsg39
Nstp202
Rp203
ag17
(g42
(dp204
g44
I0
sg45
I1
sg46
I30
sg39
Nstp205
Rp206
a(lp207
g21
(g22
(I0
tp208
g24
tp209
Rp210
(I1
(L3L
L30L
tp211
g31
I00
(lp212
g55
ag56
ag57
ag58
ag59
ag55
ag56
ag57
ag58
ag59
ag55
ag56
ag57
ag58
ag59
ag55
ag56
ag57
ag58
ag59
ag55
ag56
ag57
ag58
ag59
ag55
ag56
ag57
ag58
ag59
aS'Crispy Vegetables Pakoras'
p213
ag213
ag213
ag213
ag213
aS'Green Chutney'
p214
ag214
ag214
ag214
ag214
aS'Indian Pizza'
p215
ag215
ag215
ag215
ag215
aS'Curried Chickpeas'
p216
ag216
ag216
ag216
ag216
aS'Indian Chai'
p217
ag217
ag217
ag217
ag217
aS'Mango-Mint Lassi'
p218
ag218
ag218
ag218
ag218
aF2.0
aF0.5
aF3.0
aF3.5
aF2.0
aF2.0
aF3.0
aF2.5
aF2.0
aF1.0
aF3.0
aF3.5
aF3.0
aF2.0
aF3.5
aF2.5
aF4.0
aF5.0
aF0.5
aF1.0
aF3.0
aF2.0
aF1.0
aF0.5
aF2.0
aF2.5
aF1.0
aF4.0
aF1.5
aF3.0
atp219
ba(lp220
g17
(g18
(dp221
g20
g21
(g22
(I0
tp222
g24
tp223
Rp224
(I1
(L3L
tp225
g31
I00
(lp226
g35
ag36
ag37
atp227
bsg39
Nstp228
Rp229
a(dp230
g78
(dp231
g80
g194
sg81
(lp232
(dp233
g84
g85
(I0
I3
L1L
tp234
Rp235
sg88
g210
sasstp236
bsbsS'France'
p237
g2
(g3
g4
Ntp238
Rp239
(dp240
g8
g9
sg10
g11
sg12
g2
(g13
g4
Ntp241
Rp242
((lp243
g17
(g18
(dp244
g20
g21
(g22
(I0
tp245
g24
tp246
Rp247
(I1
(L3L
tp248
g31
I00
(lp249
g35
ag36
ag37
atp250
bsg39
Nstp251
Rp252
ag17
(g42
(dp253
g44
I0
sg45
I1
sg46
I30
sg39
Nstp254
Rp255
a(lp256
g21
(g22
(I0
tp257
g24
tp258
Rp259
(I1
(L3L
L30L
tp260
g31
I00
(lp261
g55
ag56
ag57
ag58
ag59
ag55
ag56
ag57
ag58
ag59
ag55
ag56
ag57
ag58
ag59
ag55
ag56
ag57
ag58
ag59
ag55
ag56
ag57
ag58
ag59
ag55
ag56
ag57
ag58
ag59
aS'Peach and Goat Cheese Tartine'
p262
ag262
ag262
ag262
ag262
aS'Creme brulee'
p263
ag263
ag263
ag263
ag263
aS'Crepe Suzette'
p264
ag264
ag264
ag264
ag264
aS'Ratatouille'
p265
ag265
ag265
ag265
ag265
aS'French Onion Soup'
p266
ag266
ag266
ag266
ag266
aS'French Beef Stew'
p267
ag267
ag267
ag267
ag267
aF1.5
aF5.0
aF1.5
aF3.0
aF0.5
aF0.5
aF4.0
aF4.0
aF1.0
aF1.0
aF1.5
aF2.5
aF2.5
aF0.5
aF0.5
aF1.5
aF4.5
aF2.0
aF4.5
aF2.0
aF2.0
aF1.0
aF1.5
aF2.5
aF5.0
aF1.5
aF5.0
aF3.0
aF0.5
aF1.0
atp268
ba(lp269
g17
(g18
(dp270
g20
g21
(g22
(I0
tp271
g24
tp272
Rp273
(I1
(L3L
tp274
g31
I00
(lp275
g35
ag36
ag37
atp276
bsg39
Nstp277
Rp278
a(dp279
g78
(dp280
g80
g243
sg81
(lp281
(dp282
g84
g85
(I0
I3
L1L
tp283
Rp284
sg88
g259
sasstp285
bsbsS'Mexico'
p286
g2
(g3
g4
Ntp287
Rp288
(dp289
g8
g9
sg10
g11
sg12
g2
(g13
g4
Ntp290
Rp291
((lp292
g17
(g18
(dp293
g20
g21
(g22
(I0
tp294
g24
tp295
Rp296
(I1
(L3L
tp297
g31
I00
(lp298
g35
ag36
ag37
atp299
bsg39
Nstp300
Rp301
ag17
(g42
(dp302
g44
I0
sg45
I1
sg46
I30
sg39
Nstp303
Rp304
a(lp305
g21
(g22
(I0
tp306
g24
tp307
Rp308
(I1
(L3L
L30L
tp309
g31
I00
(lp310
g55
ag56
ag57
ag58
ag59
ag55
ag56
ag57
ag58
ag59
ag55
ag56
ag57
ag58
ag59
ag55
ag56
ag57
ag58
ag59
ag55
ag56
ag57
ag58
ag59
ag55
ag56
ag57
ag58
ag59
aS'Great Chicken Taquitos'
p311
ag311
ag311
ag311
ag311
aS'Double Chili cheese Dip'
p312
ag312
ag312
ag312
ag312
aS'Grilled Fish Tacos'
p313
ag313
ag313
ag313
ag313
aS'Chili Rellenos'
p314
ag314
ag314
ag314
ag314
aS'Albondigas'
p315
ag315
ag315
ag315
ag315
aS'Vegetarian Tortilla Soup'
p316
ag316
ag316
ag316
ag316
aF0.5
aF1.5
aF1.0
aF5.0
aF2.5
aF1.5
aF2.5
aF0.5
aF2.5
aF1.0
aF4.5
aF4.0
aF0.5
aF5.0
aF0.5
aF2.5
aF4.0
aF0.5
aF5.0
aF2.0
aF4.5
aF0.5
aF1.0
aF3.0
aF3.0
aF2.0
aF1.0
aF1.0
aF1.5
aF1.5
atp317
ba(lp318
g17
(g18
(dp319
g20
g21
(g22
(I0
tp320
g24
tp321
Rp322
(I1
(L3L
tp323
g31
I00
(lp324
g35
ag36
ag37
atp325
bsg39
Nstp326
Rp327
a(dp328
g78
(dp329
g80
g292
sg81
(lp330
(dp331
g84
g85
(I0
I3
L1L
tp332
Rp333
sg88
g308
sasstp334
bsbsS'Vietnam'
p335
g2
(g3
g4
Ntp336
Rp337
(dp338
g8
g9
sg10
g11
sg12
g2
(g13
g4
Ntp339
Rp340
((lp341
g17
(g18
(dp342
g20
g21
(g22
(I0
tp343
g24
tp344
Rp345
(I1
(L3L
tp346
g31
I00
(lp347
g35
ag36
ag37
atp348
bsg39
Nstp349
Rp350
ag17
(g42
(dp351
g44
I0
sg45
I1
sg46
I30
sg39
Nstp352
Rp353
a(lp354
g21
(g22
(I0
tp355
g24
tp356
Rp357
(I1
(L3L
L30L
tp358
g31
I00
(lp359
g55
ag56
ag57
ag58
ag59
ag55
ag56
ag57
ag58
ag59
ag55
ag56
ag57
ag58
ag59
ag55
ag56
ag57
ag58
ag59
ag55
ag56
ag57
ag58
ag59
ag55
ag56
ag57
ag58
ag59
aS'Vietnamese Fresh Spring Rolls'
p360
ag360
ag360
ag360
ag360
aS'Vietnamese Salad Rolls'
p361
ag361
ag361
ag361
ag361
aS'Vietnamese Chicken Salad'
p362
ag362
ag362
ag362
ag362
aS'Vietnamese Aromatic Lamb Chops'
p363
ag363
ag363
ag363
ag363
aS'Vietnamese Beef Pho'
p364
ag364
ag364
ag364
ag364
aS'Vietnamese Style Vegetarian Curry Soup'
p365
ag365
ag365
ag365
ag365
aF5.0
aF2.5
aF4.5
aF5.0
aF4.0
aF2.0
aF1.0
aF4.0
aF3.0
aF4.0
aF4.0
aF1.0
aF4.5
aF3.5
aF1.0
aF5.0
aF3.5
aF0.5
aF2.0
aF4.0
aF2.0
aF1.5
aF4.5
aF5.0
aF1.5
aF2.5
aF5.0
aF4.0
aF2.5
aF3.0
atp366
ba(lp367
g17
(g18
(dp368
g20
g21
(g22
(I0
tp369
g24
tp370
Rp371
(I1
(L3L
tp372
g31
I00
(lp373
g35
ag36
ag37
atp374
bsg39
Nstp375
Rp376
a(dp377
g78
(dp378
g80
g341
sg81
(lp379
(dp380
g84
g85
(I0
I3
L1L
tp381
Rp382
sg88
g357
sasstp383
bsbsS'China'
p384
g2
(g3
g4
Ntp385
Rp386
(dp387
g8
g9
sg10
g11
sg12
g2
(g13
g4
Ntp388
Rp389
((lp390
g17
(g18
(dp391
g20
g21
(g22
(I0
tp392
g24
tp393
Rp394
(I1
(L3L
tp395
g31
I00
(lp396
g35
ag36
ag37
atp397
bsg39
Nstp398
Rp399
ag17
(g42
(dp400
g44
I0
sg45
I1
sg46
I30
sg39
Nstp401
Rp402
a(lp403
g21
(g22
(I0
tp404
g24
tp405
Rp406
(I1
(L3L
L30L
tp407
g31
I00
(lp408
g55
ag56
ag57
ag58
ag59
ag55
ag56
ag57
ag58
ag59
ag55
ag56
ag57
ag58
ag59
ag55
ag56
ag57
ag58
ag59
ag55
ag56
ag57
ag58
ag59
ag55
ag56
ag57
ag58
ag59
aS'Chinese Tea Leaf Eggs'
p409
ag409
ag409
ag409
ag409
aS'Seseame Oil Chicken Wings'
p410
ag410
ag410
ag410
ag410
aS'Chinese Mabo Tofu'
p411
ag411
ag411
ag411
ag411
aS"General Tsao's Chicken"
p412
ag412
ag412
ag412
ag412
aS'Chinese Sizzling Rice Soup'
p413
ag413
ag413
ag413
ag413
aS'Chinese Corn Soup'
p414
ag414
ag414
ag414
ag414
aF3.5
aF4.0
aF3.5
aF4.5
aF2.0
aF5.0
aF4.5
aF1.5
aF4.0
aF0.5
aF1.5
aF5.0
aF1.5
aF3.0
aF1.5
aF3.5
aF1.0
aF2.5
aF1.0
aF0.5
aF3.5
aF2.0
aF5.0
aF2.0
aF2.0
aF5.0
aF3.5
aF2.0
aF1.0
aF3.0
atp415
ba(lp416
g17
(g18
(dp417
g20
g21
(g22
(I0
tp418
g24
tp419
Rp420
(I1
(L3L
tp421
g31
I00
(lp422
g35
ag36
ag37
atp423
bsg39
Nstp424
Rp425
a(dp426
g78
(dp427
g80
g390
sg81
(lp428
(dp429
g84
g85
(I0
I3
L1L
tp430
Rp431
sg88
g406
sasstp432
bsbsS'Japan'
p433
g2
(g3
g4
Ntp434
Rp435
(dp436
g8
g9
sg10
g11
sg12
g2
(g13
g4
Ntp437
Rp438
((lp439
g17
(g18
(dp440
g20
g21
(g22
(I0
tp441
g24
tp442
Rp443
(I1
(L3L
tp444
g31
I00
(lp445
g35
ag36
ag37
atp446
bsg39
Nstp447
Rp448
ag17
(g42
(dp449
g44
I0
sg45
I1
sg46
I30
sg39
Nstp450
Rp451
a(lp452
g21
(g22
(I0
tp453
g24
tp454
Rp455
(I1
(L3L
L30L
tp456
g31
I00
(lp457
g55
ag56
ag57
ag58
ag59
ag55
ag56
ag57
ag58
ag59
ag55
ag56
ag57
ag58
ag59
ag55
ag56
ag57
ag58
ag59
ag55
ag56
ag57
ag58
ag59
ag55
ag56
ag57
ag58
ag59
aS'Japanese-Style Grilled Mushrooms'
p458
ag458
ag458
ag458
ag458
aS'Tofu Hiyayakko'
p459
ag459
ag459
ag459
ag459
aS'Crispy Shrimp Tempura'
p460
ag460
ag460
ag460
ag460
aS'Miso Salmon'
p461
ag461
ag461
ag461
ag461
aS'Dashi Stock'
p462
ag462
ag462
ag462
ag462
aS'Beef Sukiyaki'
p463
ag463
ag463
ag463
ag463
aF1.5
aF0.5
aF5.0
aF4.0
aF4.5
aF3.5
aF4.0
aF3.5
aF4.0
aF3.5
aF3.5
aF2.5
aF1.5
aF2.0
aF3.0
aF3.5
aF1.0
aF4.5
aF3.5
aF5.0
aF2.5
aF4.5
aF4.0
aF3.0
aF1.0
aF1.0
aF3.0
aF5.0
aF3.5
aF5.0
atp464
ba(lp465
g17
(g18
(dp466
g20
g21
(g22
(I0
tp467
g24
tp468
Rp469
(I1
(L3L
tp470
g31
I00
(lp471
g35
ag36
ag37
atp472
bsg39
Nstp473
Rp474
a(dp475
g78
(dp476
g80
g439
sg81
(lp477
(dp478
g84
g85
(I0
I3
L1L
tp479
Rp480
sg88
g455
sasstp481
bsbsS'Thailand'
p482
g2
(g3
g4
Ntp483
Rp484
(dp485
g8
g9
sg10
g11
sg12
g2
(g13
g4
Ntp486
Rp487
((lp488
g17
(g18
(dp489
g20
g21
(g22
(I0
tp490
g24
tp491
Rp492
(I1
(L3L
tp493
g31
I00
(lp494
g35
ag36
ag37
atp495
bsg39
Nstp496
Rp497
ag17
(g42
(dp498
g44
I0
sg45
I1
sg46
I30
sg39
Nstp499
Rp500
a(lp501
g21
(g22
(I0
tp502
g24
tp503
Rp504
(I1
(L3L
L30L
tp505
g31
I00
(lp506
g55
ag56
ag57
ag58
ag59
ag55
ag56
ag57
ag58
ag59
ag55
ag56
ag57
ag58
ag59
ag55
ag56
ag57
ag58
ag59
ag55
ag56
ag57
ag58
ag59
ag55
ag56
ag57
ag58
ag59
aS'Fried Chicken Wings'
p507
ag507
ag507
ag507
ag507
aS'Fried Tofu with Peanut Dipping Sauce'
p508
ag508
ag508
ag508
ag508
aS'Barbeque Pork on Rice'
p509
ag509
ag509
ag509
ag509
aS'Beef Stew Recipe'
p510
ag510
ag510
ag510
ag510
aS'Thai Ginger Soup'
p511
ag511
ag511
ag511
ag511
aS'Thai Hout and Sour Soup'
p512
ag512
ag512
ag512
ag512
aF1.5
aF1.0
aF4.0
aF2.0
aF5.0
aF4.0
aF5.0
aF1.5
aF1.0
aF2.0
aF1.5
aF2.0
aF4.5
aF0.5
aF5.0
aF3.5
aF2.0
aF1.0
aF4.0
aF2.0
aF4.5
aF2.5
aF5.0
aF4.5
aF5.0
aF3.5
aF5.0
aF2.5
aF0.5
aF0.5
atp513
ba(lp514
g17
(g18
(dp515
g20
g21
(g22
(I0
tp516
g24
tp517
Rp518
(I1
(L3L
tp519
g31
I00
(lp520
g35
ag36
ag37
atp521
bsg39
Nstp522
Rp523
a(dp524
g78
(dp525
g80
g488
sg81
(lp526
(dp527
g84
g85
(I0
I3
L1L
tp528
Rp529
sg88
g504
sasstp530
bsbsS'Pizza'
p531
g2
(g3
g4
Ntp532
Rp533
(dp534
g8
g9
sg10
g11
sg12
g2
(g13
g4
Ntp535
Rp536
((lp537
g17
(g18
(dp538
g20
g21
(g22
(I0
tp539
g24
tp540
Rp541
(I1
(L3L
tp542
g31
I00
(lp543
g35
ag36
ag37
atp544
bsg39
Nstp545
Rp546
ag17
(g42
(dp547
g44
I0
sg45
I1
sg46
I30
sg39
Nstp548
Rp549
a(lp550
g21
(g22
(I0
tp551
g24
tp552
Rp553
(I1
(L3L
L30L
tp554
g31
I00
(lp555
g55
ag56
ag57
ag58
ag59
ag55
ag56
ag57
ag58
ag59
ag55
ag56
ag57
ag58
ag59
ag55
ag56
ag57
ag58
ag59
ag55
ag56
ag57
ag58
ag59
ag55
ag56
ag57
ag58
ag59
aS'Berry, Arugula and Prosciutto Pizza'
p556
ag556
ag556
ag556
ag556
aS'Macaroni And Cheese Pizza'
p557
ag557
ag557
ag557
ag557
aS'Butternut Squash and Crispy Sage Pizza'
p558
ag558
ag558
ag558
ag558
aS'Buffalo Chicken Pizza Sticks'
p559
ag559
ag559
ag559
ag559
aS'Cantaloupe And Sweet Ricotta Pizza'
p560
ag560
ag560
ag560
ag560
aS'Hummus And Grilled Zucchini Pizzas'
p561
ag561
ag561
ag561
ag561
aF3.0
aF1.0
aF3.0
aF2.0
aF4.5
aF5.0
aF2.5
aF2.0
aF3.5
aF2.5
aF1.5
aF4.0
aF4.5
aF4.5
aF1.0
aF2.0
aF2.0
aF4.5
aF5.0
aF1.0
aF1.0
aF4.5
aF4.5
aF1.0
aF1.0
aF4.0
aF2.5
aF1.0
aF3.0
aF1.5
atp562
ba(lp563
g17
(g18
(dp564
g20
g21
(g22
(I0
tp565
g24
tp566
Rp567
(I1
(L3L
tp568
g31
I00
(lp569
g35
ag36
ag37
atp570
bsg39
Nstp571
Rp572
a(dp573
g78
(dp574
g80
g537
sg81
(lp575
(dp576
g84
g85
(I0
I3
L1L
tp577
Rp578
sg88
g553
sasstp579
bsbs.