ccopy_reg
_reconstructor
p0
(cpandas.core.frame
DataFrame
p1
c__builtin__
object
p2
Ntp3
Rp4
(dp5
S'_metadata'
p6
(lp7
sS'_typ'
p8
S'dataframe'
p9
sS'_data'
p10
g0
(cpandas.core.internals
BlockManager
p11
g2
Ntp12
Rp13
((lp14
cpandas.indexes.base
_new_Index
p15
(cpandas.indexes.base
Index
p16
(dp17
S'data'
p18
cnumpy.core.multiarray
_reconstruct
p19
(cnumpy
ndarray
p20
(I0
tp21
S'b'
p22
tp23
Rp24
(I1
(L12L
tp25
cnumpy
dtype
p26
(S'O8'
p27
I0
I1
tp28
Rp29
(I3
S'|'
p30
NNNI-1
I-1
I63
tp31
bI00
(lp32
S'user_id'
p33
aS'China'
p34
aS'France'
p35
aS'India'
p36
aS'Indonesia'
p37
aS'Italy'
p38
aS'Japan'
p39
aS'Mexico'
p40
aS'Pizza'
p41
aS'Singapore'
p42
aS'Thailand'
p43
aS'Vietnam'
p44
atp45
bsS'name'
p46
Nstp47
Rp48
ag15
(cpandas.indexes.range
RangeIndex
p49
(dp50
S'start'
p51
I0
sS'step'
p52
I1
sS'stop'
p53
I5
sg46
Nstp54
Rp55
a(lp56
g19
(g20
(I0
tp57
g22
tp58
Rp59
(I1
(L12L
L5L
tp60
g29
I00
(lp61
S'Brian'
p62
aS'David'
p63
aS'Eugene'
p64
aS'Jon'
p65
aS'Marvin'
p66
aF2.0
aF0.5
aF4.0
aF4.0
aF0.5
aF3.5
aF3.0
aF0.5
aF1.0
aF5.0
aF3.0
aF0.5
aF5.0
aF4.0
aF4.5
aF2.5
aF5.0
aF0.5
aF2.5
aF4.5
aF4.5
aF3.5
aF2.0
aF0.5
aF3.5
aF5.0
aF1.5
aF1.5
aF3.0
aF4.5
aF1.0
aF0.5
aF2.0
aF1.0
aF3.5
aF4.0
aF3.0
aF1.0
aF3.0
aF2.0
aF5.0
aF1.5
aF2.0
aF5.0
aF1.0
aF3.5
aF3.5
aF1.0
aF5.0
aF1.5
aF4.5
aF2.0
aF2.0
aF2.5
aF3.0
atp67
ba(lp68
g15
(g16
(dp69
g18
g19
(g20
(I0
tp70
g22
tp71
Rp72
(I1
(L12L
tp73
g29
I00
(lp74
g33
ag34
ag35
ag36
ag37
ag38
ag39
ag40
ag41
ag42
ag43
ag44
atp75
bsg46
Nstp76
Rp77
a(dp78
S'0.14.1'
p79
(dp80
S'axes'
p81
g14
sS'blocks'
p82
(lp83
(dp84
S'mgr_locs'
p85
c__builtin__
slice
p86
(I0
I12
L1L
tp87
Rp88
sS'values'
p89
g59
sasstp90
bsb.