ccopy_reg
_reconstructor
p0
(cpandas.core.frame
DataFrame
p1
c__builtin__
object
p2
Ntp3
Rp4
(dp5
S'_metadata'
p6
(lp7
sS'_typ'
p8
S'dataframe'
p9
sS'_data'
p10
g0
(cpandas.core.internals
BlockManager
p11
g2
Ntp12
Rp13
((lp14
cpandas.indexes.base
_new_Index
p15
(cpandas.indexes.base
Index
p16
(dp17
S'data'
p18
cnumpy.core.multiarray
_reconstruct
p19
(cnumpy
ndarray
p20
(I0
tp21
S'b'
p22
tp23
Rp24
(I1
(L11L
tp25
cnumpy
dtype
p26
(S'O8'
p27
I0
I1
tp28
Rp29
(I3
S'|'
p30
NNNI-1
I-1
I63
tp31
bI00
(lp32
S'user_id'
p33
aS'China'
p34
aS'France'
p35
aS'India'
p36
aS'Indonesia'
p37
aS'Italy'
p38
aS'Japan'
p39
aS'Mexico'
p40
aS'Singapore'
p41
aS'Thailand'
p42
aS'Vietnam'
p43
atp44
bsS'name'
p45
Nstp46
Rp47
ag15
(cpandas.indexes.range
RangeIndex
p48
(dp49
S'start'
p50
I0
sS'step'
p51
I1
sS'stop'
p52
I5
sg45
Nstp53
Rp54
a(lp55
g19
(g20
(I0
tp56
g22
tp57
Rp58
(I1
(L11L
L5L
tp59
g29
I00
(lp60
S'Brian'
p61
aS'David'
p62
aS'Eugene'
p63
aS'Jon'
p64
aS'Marvin'
p65
aF2.0
aF4.5
aF3.5
aF2.0
aF3.0
aF3.5
aF0.5
aF2.0
aF1.0
aF5.0
aF3.0
aF3.0
aF4.0
aF2.0
aF5.0
aF2.5
aF0.5
aF0.5
aF4.0
aF2.5
aF4.5
aF5.0
aF5.0
aF1.0
aF0.5
aF5.0
aF3.5
aF0.5
aF4.0
aF5.0
aF1.0
aF1.5
aF2.0
aF2.5
aF4.5
aF4.0
aF0.5
aF1.5
aF0.5
aF4.5
aF5.0
aF3.0
aF2.0
aF3.0
aF3.5
aF3.5
aF1.5
aF1.0
aF1.0
aF4.5
atp66
ba(lp67
g15
(g16
(dp68
g18
g19
(g20
(I0
tp69
g22
tp70
Rp71
(I1
(L11L
tp72
g29
I00
(lp73
g33
ag34
ag35
ag36
ag37
ag38
ag39
ag40
ag41
ag42
ag43
atp74
bsg45
Nstp75
Rp76
a(dp77
S'0.14.1'
p78
(dp79
S'axes'
p80
g14
sS'blocks'
p81
(lp82
(dp83
S'mgr_locs'
p84
c__builtin__
slice
p85
(I0
I11
L1L
tp86
Rp87
sS'values'
p88
g58
sasstp89
bsb.